Archive member included to satisfy reference by file (symbol)

build/cooja/mtype788.a(simEnvChange.o)
                              build/cooja/mtype788.o (simDontFallAsleep)
build/cooja/mtype788.a(cooja_mt.o)
                              build/cooja/mtype788.o (cooja_mt_start)
build/cooja/mtype788.a(cooja_mtarch.o)
                              build/cooja/mtype788.a(cooja_mt.o) (cooja_mtarch_start)
build/cooja/mtype788.a(rtimer-arch.o)
                              build/cooja/mtype788.o (rtimer_arch_check)
build/cooja/mtype788.a(beep.o)
                              build/cooja/mtype788.o (beep_interface)
build/cooja/mtype788.a(leds-arch.o)
                              build/cooja/mtype788.o (leds_interface)
build/cooja/mtype788.a(moteid.o)
                              build/cooja/mtype788.o (moteid_interface)
build/cooja/mtype788.a(pir-sensor.o)
                              build/cooja/mtype788.o (pir_interface)
build/cooja/mtype788.a(rs232.o)
                              build/cooja/mtype788.o (rs232_interface)
build/cooja/mtype788.a(vib-sensor.o)
                              build/cooja/mtype788.o (vib_interface)
build/cooja/mtype788.a(clock.o)
                              build/cooja/mtype788.o (clock_interface)
build/cooja/mtype788.a(cooja-log.o)
                              build/cooja/mtype788.o (simlog_interface)
build/cooja/mtype788.a(cfs-cooja.o)
                              build/cooja/mtype788.o (cfs_interface)
build/cooja/mtype788.a(cooja-radio.o)
                              build/cooja/mtype788.o (radio_interface)
build/cooja/mtype788.a(eeprom.o)
                              build/cooja/mtype788.o (eeprom_interface)
build/cooja/mtype788.a(random.o)
                              build/cooja/mtype788.a(moteid.o) (random_init)
build/cooja/mtype788.a(sensors.o)
                              build/cooja/mtype788.a(pir-sensor.o) (sensors_changed)
build/cooja/mtype788.a(leds.o)
                              build/cooja/mtype788.a(leds-arch.o) (leds_get)
build/cooja/mtype788.a(gpio-hal-arch.o)
                              build/cooja/mtype788.a(leds-arch.o) (gpio_hal_arch_register_pin_callback)
build/cooja/mtype788.a(buttons.o)
                              build/cooja/mtype788.o (button_interface)
build/cooja/mtype788.a(coap-engine.o)
                              coap-actuator-energy.o (coap_activate_resource)
build/cooja/mtype788.a(coap-res-well-k)
                              build/cooja/mtype788.a(coap-engine.o) (res_well_known_core)
build/cooja/mtype788.a(coap-observe.o)
                              build/cooja/mtype788.a(coap-engine.o) (coap_remove_observer_by_mid)
build/cooja/mtype788.a(coap-uip.o)
                              build/cooja/mtype788.a(coap-observe.o) (coap_endpoint_copy)
build/cooja/mtype788.a(coap-timer.o)
                              build/cooja/mtype788.a(coap-engine.o) (coap_timer_set)
build/cooja/mtype788.a(coap-transactio)
                              build/cooja/mtype788.a(coap-engine.o) (coap_send_transaction)
build/cooja/mtype788.a(coap.o)
                              build/cooja/mtype788.a(coap-engine.o) (coap_status_code)
build/cooja/mtype788.a(contiki-main.o)
                              build/cooja/mtype788.o (main)
build/cooja/mtype788.a(autostart.o)
                              build/cooja/mtype788.a(contiki-main.o) (autostart_start)
build/cooja/mtype788.a(ctimer.o)
                              build/cooja/mtype788.a(contiki-main.o) (ctimer_init)
build/cooja/mtype788.a(log.o)
                              build/cooja/mtype788.a(contiki-main.o) (curr_log_level_main)
build/cooja/mtype788.a(energest.o)
                              build/cooja/mtype788.a(contiki-main.o) (energest_init)
build/cooja/mtype788.a(etimer.o)
                              build/cooja/mtype788.a(contiki-main.o) (etimer_process)
build/cooja/mtype788.a(node-id.o)
                              build/cooja/mtype788.a(contiki-main.o) (node_id)
build/cooja/mtype788.a(rtimer.o)
                              build/cooja/mtype788.a(contiki-main.o) (rtimer_init)
build/cooja/mtype788.a(process.o)
                              build/cooja/mtype788.a(ctimer.o) (process_current)
build/cooja/mtype788.a(timer.o)
                              build/cooja/mtype788.a(etimer.o) (timer_set)
build/cooja/mtype788.a(list.o)
                              build/cooja/mtype788.a(coap-engine.o) (list_init)
build/cooja/mtype788.a(memb.o)
                              build/cooja/mtype788.a(coap-observe.o) (memb_alloc)
build/cooja/mtype788.a(button-hal.o)
                              build/cooja/mtype788.o (button_hal_init)
build/cooja/mtype788.a(serial-line.o)
                              build/cooja/mtype788.a(rs232.o) (serial_line_input_byte)
build/cooja/mtype788.a(gpio-hal.o)
                              build/cooja/mtype788.a(button-hal.o) (gpio_hal_register_handler)
build/cooja/mtype788.a(queuebuf.o)
                              build/cooja/mtype788.a(contiki-main.o) (queuebuf_init)
build/cooja/mtype788.a(packetbuf.o)
                              build/cooja/mtype788.a(cooja-radio.o) (packetbuf_clear)
build/cooja/mtype788.a(netstack.o)
                              build/cooja/mtype788.a(contiki-main.o) (netstack_init)
build/cooja/mtype788.a(linkaddr.o)
                              build/cooja/mtype788.a(contiki-main.o) (linkaddr_node_addr)
build/cooja/mtype788.a(csma.o)
                              build/cooja/mtype788.a(cooja-radio.o) (csma_driver)
build/cooja/mtype788.a(csma-output.o)
                              build/cooja/mtype788.a(csma.o) (csma_output_packet)
build/cooja/mtype788.a(uip-ds6.o)
                              build/cooja/mtype788.a(contiki-main.o) (uip_ds6_get_link_local)
build/cooja/mtype788.a(uip-udp-packet.)
                              build/cooja/mtype788.a(coap-uip.o) (uip_udp_packet_sendto)
build/cooja/mtype788.a(uip-ds6-route.o)
                              build/cooja/mtype788.a(uip-ds6.o) (uip_ds6_route_init)
build/cooja/mtype788.a(tcpip.o)
                              build/cooja/mtype788.a(coap-uip.o) (tcpip_event)
build/cooja/mtype788.a(uip6.o)
                              build/cooja/mtype788.a(contiki-main.o) (uip_lladdr)
build/cooja/mtype788.a(uip-ds6-nbr.o)
                              build/cooja/mtype788.a(uip-ds6.o) (uip_ds6_neighbors_init)
build/cooja/mtype788.a(uip-nd6.o)
                              build/cooja/mtype788.a(uip6.o) (uip_nd6_init)
build/cooja/mtype788.a(sicslowpan.o)
                              build/cooja/mtype788.a(contiki-main.o) (sicslowpan_driver)
build/cooja/mtype788.a(uiplib.o)
                              build/cooja/mtype788.a(coap-uip.o) (uiplib_ip6addrconv)
build/cooja/mtype788.a(rpl.o)
                              build/cooja/mtype788.a(coap-uip.o) (rpl_lite_driver)
build/cooja/mtype788.a(rpl-icmp6.o)
                              build/cooja/mtype788.a(rpl.o) (rpl_icmp6_init)
build/cooja/mtype788.a(rpl-dag-root.o)
                              build/cooja/mtype788.a(rpl.o) (rpl_dag_root_is_root)
build/cooja/mtype788.a(watchdog.o)
                              build/cooja/mtype788.a(contiki-main.o) (watchdog_init)
build/cooja/mtype788.a(int-master.o)
                              build/cooja/mtype788.a(button-hal.o) (int_master_read_and_disable)
build/cooja/mtype788.a(coap-timer-defa)
                              build/cooja/mtype788.a(coap-timer.o) (coap_timer_default_driver)
build/cooja/mtype788.a(stimer.o)
                              build/cooja/mtype788.a(uip-ds6.o) (stimer_set)
build/cooja/mtype788.a(ringbuf.o)
                              build/cooja/mtype788.a(serial-line.o) (ringbuf_init)
build/cooja/mtype788.a(assert.o)
                              build/cooja/mtype788.a(csma-output.o) (_xassert)
build/cooja/mtype788.a(nbr-table.o)
                              build/cooja/mtype788.a(uip-ds6-route.o) (nbr_table_register)
build/cooja/mtype788.a(link-stats.o)
                              build/cooja/mtype788.a(sicslowpan.o) (link_stats_packet_sent)
build/cooja/mtype788.a(mac-sequence.o)
                              build/cooja/mtype788.a(csma.o) (mac_sequence_is_duplicate)
build/cooja/mtype788.a(mac.o)
                              build/cooja/mtype788.a(csma-output.o) (mac_call_sent_callback)
build/cooja/mtype788.a(framer-802154.o)
                              build/cooja/mtype788.a(csma.o) (framer_802154)
build/cooja/mtype788.a(frame802154.o)
                              build/cooja/mtype788.a(framer-802154.o) (frame802154_get_pan_id)
build/cooja/mtype788.a(csma-security.o)
                              build/cooja/mtype788.a(csma-output.o) (csma_security_create_frame)
build/cooja/mtype788.a(uipbuf.o)
                              build/cooja/mtype788.a(tcpip.o) (uipbuf_clear)
build/cooja/mtype788.a(uip-icmp6.o)
                              build/cooja/mtype788.a(uip6.o) (uip_icmp6_input)
build/cooja/mtype788.a(uip-sr.o)
                              build/cooja/mtype788.a(rpl-dag-root.o) (uip_sr_num_nodes)
build/cooja/mtype788.a(uip-packetqueue)
                              build/cooja/mtype788.a(uip-ds6-nbr.o) (uip_packetqueue_new)
build/cooja/mtype788.a(rpl-nbr-policy.)
                              build/cooja/mtype788.a(nbr-table.o) (rpl_nbr_policy_find_removable)
build/cooja/mtype788.a(rpl-neighbor.o)
                              build/cooja/mtype788.a(rpl-icmp6.o) (rpl_neighbor_get_ipaddr)
build/cooja/mtype788.a(rpl-dag.o)
                              build/cooja/mtype788.a(rpl.o) (curr_instance)
build/cooja/mtype788.a(rpl-timers.o)
                              build/cooja/mtype788.a(rpl-dag.o) (rpl_timers_schedule_periodic_dis)
build/cooja/mtype788.a(rpl-ext-header.)
                              build/cooja/mtype788.a(rpl.o) (rpl_ext_header_srh_get_next_hop)
build/cooja/mtype788.a(rpl-mrhof.o)
                              build/cooja/mtype788.a(rpl-dag.o) (rpl_mrhof)
/usr/lib/gcc/i686-linux-gnu/5/libgcc.a(_udivdi3.o)
                              build/cooja/mtype788.a(coap-timer-defa) (__udivdi3)

Allocating common symbols
Common symbol       size              file

simButtonIsDown     0x1               build/cooja/mtype788.a(buttons.o)
simOutDataBuffer    0x7d              build/cooja/mtype788.a(cooja-radio.o)
uip_ds6_prefix_list
                    0x60              build/cooja/mtype788.a(uip-ds6.o)
linkaddr_node_addr  0x8               build/cooja/mtype788.a(linkaddr.o)
simSerialReceivingFlag
                    0x1               build/cooja/mtype788.a(rs232.o)
simEEPROMData       0x400             build/cooja/mtype788.a(eeprom.o)
periodic_timer      0x20              build/cooja/mtype788.a(link-stats.o)
simLoggedLength     0x4               build/cooja/mtype788.a(cooja-log.o)
simSerialReceivingLength
                    0x4               build/cooja/mtype788.a(rs232.o)
simEtimerPending    0x4               build/cooja/mtype788.a(simEnvChange.o)
uip_slen            0x2               build/cooja/mtype788.a(uip6.o)
uip_ds6_timer_periodic
                    0x10              build/cooja/mtype788.a(uip-ds6.o)
eb_per_time_source  0x18              build/cooja/mtype788.a(contiki-main.o)
unicast_per_neighbor_rpl_storing
                    0x18              build/cooja/mtype788.a(contiki-main.o)
simVibChanged       0x1               build/cooja/mtype788.a(vib-sensor.o)
simRtimerPending    0x4               build/cooja/mtype788.a(rtimer-arch.o)
button_hal_periodic_event
                    0x1               build/cooja/mtype788.a(button-hal.o)
uip_ds6_netif_addr_list_offset
                    0x1               build/cooja/mtype788.a(uip-ds6.o)
uip_lladdr          0x8               build/cooja/mtype788.a(uip6.o)
button_hal_press_event
                    0x1               build/cooja/mtype788.a(button-hal.o)
simProcessRunValue  0x4               build/cooja/mtype788.a(simEnvChange.o)
serial_line_event_message
                    0x1               build/cooja/mtype788.a(serial-line.o)
uip_appdata         0x4               build/cooja/mtype788.a(uip6.o)
referenceVar        0x4               build/cooja/mtype788.o
simCurrentTime      0x4               build/cooja/mtype788.a(clock.o)
simVibIsActive      0x1               build/cooja/mtype788.a(vib-sensor.o)
unicast_per_neighbor_rpl_ns
                    0x18              build/cooja/mtype788.a(contiki-main.o)
uip_ds6_if          0xf8              build/cooja/mtype788.a(uip-ds6.o)
uip_flags           0x1               build/cooja/mtype788.a(uip6.o)
uip_ds6_timer_ra    0x8               build/cooja/mtype788.a(uip-ds6.o)
default_common      0x18              build/cooja/mtype788.a(contiki-main.o)
simSerialReceivingData
                    0x800             build/cooja/mtype788.a(rs232.o)
simLoggedFlag       0x1               build/cooja/mtype788.a(cooja-log.o)
packetbuf_attrs     0x1a              build/cooja/mtype788.a(packetbuf.o)
uip_ds6_addr_size   0x1               build/cooja/mtype788.a(uip-ds6.o)
uip_aligned_buf     0xf0              build/cooja/mtype788.a(uip6.o)
simRtimerCurrentTicks
                    0x8               build/cooja/mtype788.a(rtimer-arch.o)
simRandomSeed       0x4               build/cooja/mtype788.a(moteid.o)
rpl_multicast_addr  0x10              build/cooja/mtype788.a(rpl.o)
simLoggedData       0x2000            build/cooja/mtype788.a(cooja-log.o)
simEtimerNextExpirationTime
                    0x4               build/cooja/mtype788.a(simEnvChange.o)
uip_len             0x2               build/cooja/mtype788.a(uip6.o)
simButtonChanged    0x1               build/cooja/mtype788.a(buttons.o)
simRtimerNextExpirationTime
                    0x8               build/cooja/mtype788.a(rtimer-arch.o)
simPirIsActive      0x1               build/cooja/mtype788.a(pir-sensor.o)
simInDataBuffer     0x7d              build/cooja/mtype788.a(cooja-radio.o)
simPirChanged       0x1               build/cooja/mtype788.a(pir-sensor.o)
simBeeped           0x1               build/cooja/mtype788.a(beep.o)
tcpip_event         0x1               build/cooja/mtype788.a(tcpip.o)
uip_sappdata        0x4               build/cooja/mtype788.a(uip6.o)
sensors_event       0x1               build/cooja/mtype788.a(sensors.o)
uip_udp_conns       0x100             build/cooja/mtype788.a(uip6.o)
button_hal_release_event
                    0x1               build/cooja/mtype788.a(button-hal.o)
packetbuf_addrs     0x10              build/cooja/mtype788.a(packetbuf.o)
uip_udp_conn        0x4               build/cooja/mtype788.a(uip6.o)
simMoteIDChanged    0x1               build/cooja/mtype788.a(moteid.o)
sensors_flags       0x4               build/cooja/mtype788.o
curr_instance       0x164             build/cooja/mtype788.a(rpl-dag.o)
simMoteID           0x4               build/cooja/mtype788.a(moteid.o)
uip_conn            0x4               build/cooja/mtype788.a(uip6.o)

Discarded input sections

 .note.GNU-stack
                0x0000000000000000        0x0 /usr/lib/gcc/i686-linux-gnu/5/../../../i386-linux-gnu/crti.o
 .group         0x0000000000000000        0x8 /usr/lib/gcc/i686-linux-gnu/5/crtbeginS.o
 .group         0x0000000000000000        0x8 /usr/lib/gcc/i686-linux-gnu/5/crtbeginS.o
 .text.__x86.get_pc_thunk.bx
                0x0000000000000000        0x4 /usr/lib/gcc/i686-linux-gnu/5/crtbeginS.o
 .note.GNU-stack
                0x0000000000000000        0x0 /usr/lib/gcc/i686-linux-gnu/5/crtbeginS.o
 .note.GNU-stack
                0x0000000000000000        0x0 coap-actuator-energy.o
 .note.GNU-stack
                0x0000000000000000        0x0 build/cooja/mtype788.o
 .note.GNU-stack
                0x0000000000000000        0x0 build/cooja/mtype788.a(simEnvChange.o)
 .note.GNU-stack
                0x0000000000000000        0x0 build/cooja/mtype788.a(cooja_mt.o)
 .note.GNU-stack
                0x0000000000000000        0x0 build/cooja/mtype788.a(cooja_mtarch.o)
 .note.GNU-stack
                0x0000000000000000        0x0 build/cooja/mtype788.a(rtimer-arch.o)
 .note.GNU-stack
                0x0000000000000000        0x0 build/cooja/mtype788.a(beep.o)
 .note.GNU-stack
                0x0000000000000000        0x0 build/cooja/mtype788.a(leds-arch.o)
 .note.GNU-stack
                0x0000000000000000        0x0 build/cooja/mtype788.a(moteid.o)
 .note.GNU-stack
                0x0000000000000000        0x0 build/cooja/mtype788.a(pir-sensor.o)
 .note.GNU-stack
                0x0000000000000000        0x0 build/cooja/mtype788.a(rs232.o)
 .note.GNU-stack
                0x0000000000000000        0x0 build/cooja/mtype788.a(vib-sensor.o)
 .note.GNU-stack
                0x0000000000000000        0x0 build/cooja/mtype788.a(clock.o)
 .note.GNU-stack
                0x0000000000000000        0x0 build/cooja/mtype788.a(cooja-log.o)
 .note.GNU-stack
                0x0000000000000000        0x0 build/cooja/mtype788.a(cfs-cooja.o)
 .note.GNU-stack
                0x0000000000000000        0x0 build/cooja/mtype788.a(cooja-radio.o)
 .note.GNU-stack
                0x0000000000000000        0x0 build/cooja/mtype788.a(eeprom.o)
 .note.GNU-stack
                0x0000000000000000        0x0 build/cooja/mtype788.a(random.o)
 .note.GNU-stack
                0x0000000000000000        0x0 build/cooja/mtype788.a(sensors.o)
 .note.GNU-stack
                0x0000000000000000        0x0 build/cooja/mtype788.a(leds.o)
 .note.GNU-stack
                0x0000000000000000        0x0 build/cooja/mtype788.a(gpio-hal-arch.o)
 .note.GNU-stack
                0x0000000000000000        0x0 build/cooja/mtype788.a(buttons.o)
 .note.GNU-stack
                0x0000000000000000        0x0 build/cooja/mtype788.a(coap-engine.o)
 .note.GNU-stack
                0x0000000000000000        0x0 build/cooja/mtype788.a(coap-res-well-k)
 .note.GNU-stack
                0x0000000000000000        0x0 build/cooja/mtype788.a(coap-observe.o)
 .note.GNU-stack
                0x0000000000000000        0x0 build/cooja/mtype788.a(coap-uip.o)
 .note.GNU-stack
                0x0000000000000000        0x0 build/cooja/mtype788.a(coap-timer.o)
 .note.GNU-stack
                0x0000000000000000        0x0 build/cooja/mtype788.a(coap-transactio)
 .note.GNU-stack
                0x0000000000000000        0x0 build/cooja/mtype788.a(coap.o)
 .note.GNU-stack
                0x0000000000000000        0x0 build/cooja/mtype788.a(contiki-main.o)
 .note.GNU-stack
                0x0000000000000000        0x0 build/cooja/mtype788.a(autostart.o)
 .note.GNU-stack
                0x0000000000000000        0x0 build/cooja/mtype788.a(ctimer.o)
 .note.GNU-stack
                0x0000000000000000        0x0 build/cooja/mtype788.a(log.o)
 .note.GNU-stack
                0x0000000000000000        0x0 build/cooja/mtype788.a(energest.o)
 .note.GNU-stack
                0x0000000000000000        0x0 build/cooja/mtype788.a(etimer.o)
 .note.GNU-stack
                0x0000000000000000        0x0 build/cooja/mtype788.a(node-id.o)
 .note.GNU-stack
                0x0000000000000000        0x0 build/cooja/mtype788.a(rtimer.o)
 .note.GNU-stack
                0x0000000000000000        0x0 build/cooja/mtype788.a(process.o)
 .note.GNU-stack
                0x0000000000000000        0x0 build/cooja/mtype788.a(timer.o)
 .note.GNU-stack
                0x0000000000000000        0x0 build/cooja/mtype788.a(list.o)
 .note.GNU-stack
                0x0000000000000000        0x0 build/cooja/mtype788.a(memb.o)
 .note.GNU-stack
                0x0000000000000000        0x0 build/cooja/mtype788.a(button-hal.o)
 .note.GNU-stack
                0x0000000000000000        0x0 build/cooja/mtype788.a(serial-line.o)
 .note.GNU-stack
                0x0000000000000000        0x0 build/cooja/mtype788.a(gpio-hal.o)
 .note.GNU-stack
                0x0000000000000000        0x0 build/cooja/mtype788.a(queuebuf.o)
 .note.GNU-stack
                0x0000000000000000        0x0 build/cooja/mtype788.a(packetbuf.o)
 .note.GNU-stack
                0x0000000000000000        0x0 build/cooja/mtype788.a(netstack.o)
 .note.GNU-stack
                0x0000000000000000        0x0 build/cooja/mtype788.a(linkaddr.o)
 .note.GNU-stack
                0x0000000000000000        0x0 build/cooja/mtype788.a(csma.o)
 .note.GNU-stack
                0x0000000000000000        0x0 build/cooja/mtype788.a(csma-output.o)
 .note.GNU-stack
                0x0000000000000000        0x0 build/cooja/mtype788.a(uip-ds6.o)
 .note.GNU-stack
                0x0000000000000000        0x0 build/cooja/mtype788.a(uip-udp-packet.)
 .note.GNU-stack
                0x0000000000000000        0x0 build/cooja/mtype788.a(uip-ds6-route.o)
 .note.GNU-stack
                0x0000000000000000        0x0 build/cooja/mtype788.a(tcpip.o)
 .note.GNU-stack
                0x0000000000000000        0x0 build/cooja/mtype788.a(uip6.o)
 .note.GNU-stack
                0x0000000000000000        0x0 build/cooja/mtype788.a(uip-ds6-nbr.o)
 .note.GNU-stack
                0x0000000000000000        0x0 build/cooja/mtype788.a(uip-nd6.o)
 .note.GNU-stack
                0x0000000000000000        0x0 build/cooja/mtype788.a(sicslowpan.o)
 .note.GNU-stack
                0x0000000000000000        0x0 build/cooja/mtype788.a(uiplib.o)
 .note.GNU-stack
                0x0000000000000000        0x0 build/cooja/mtype788.a(rpl.o)
 .note.GNU-stack
                0x0000000000000000        0x0 build/cooja/mtype788.a(rpl-icmp6.o)
 .note.GNU-stack
                0x0000000000000000        0x0 build/cooja/mtype788.a(rpl-dag-root.o)
 .note.GNU-stack
                0x0000000000000000        0x0 build/cooja/mtype788.a(watchdog.o)
 .note.GNU-stack
                0x0000000000000000        0x0 build/cooja/mtype788.a(int-master.o)
 .note.GNU-stack
                0x0000000000000000        0x0 build/cooja/mtype788.a(coap-timer-defa)
 .note.GNU-stack
                0x0000000000000000        0x0 build/cooja/mtype788.a(stimer.o)
 .note.GNU-stack
                0x0000000000000000        0x0 build/cooja/mtype788.a(ringbuf.o)
 .note.GNU-stack
                0x0000000000000000        0x0 build/cooja/mtype788.a(assert.o)
 .note.GNU-stack
                0x0000000000000000        0x0 build/cooja/mtype788.a(nbr-table.o)
 .note.GNU-stack
                0x0000000000000000        0x0 build/cooja/mtype788.a(link-stats.o)
 .note.GNU-stack
                0x0000000000000000        0x0 build/cooja/mtype788.a(mac-sequence.o)
 .note.GNU-stack
                0x0000000000000000        0x0 build/cooja/mtype788.a(mac.o)
 .note.GNU-stack
                0x0000000000000000        0x0 build/cooja/mtype788.a(framer-802154.o)
 .note.GNU-stack
                0x0000000000000000        0x0 build/cooja/mtype788.a(frame802154.o)
 .note.GNU-stack
                0x0000000000000000        0x0 build/cooja/mtype788.a(csma-security.o)
 .note.GNU-stack
                0x0000000000000000        0x0 build/cooja/mtype788.a(uipbuf.o)
 .note.GNU-stack
                0x0000000000000000        0x0 build/cooja/mtype788.a(uip-icmp6.o)
 .note.GNU-stack
                0x0000000000000000        0x0 build/cooja/mtype788.a(uip-sr.o)
 .note.GNU-stack
                0x0000000000000000        0x0 build/cooja/mtype788.a(uip-packetqueue)
 .note.GNU-stack
                0x0000000000000000        0x0 build/cooja/mtype788.a(rpl-nbr-policy.)
 .note.GNU-stack
                0x0000000000000000        0x0 build/cooja/mtype788.a(rpl-neighbor.o)
 .note.GNU-stack
                0x0000000000000000        0x0 build/cooja/mtype788.a(rpl-dag.o)
 .note.GNU-stack
                0x0000000000000000        0x0 build/cooja/mtype788.a(rpl-timers.o)
 .note.GNU-stack
                0x0000000000000000        0x0 build/cooja/mtype788.a(rpl-ext-header.)
 .note.GNU-stack
                0x0000000000000000        0x0 build/cooja/mtype788.a(rpl-mrhof.o)
 .note.GNU-stack
                0x0000000000000000        0x0 /usr/lib/gcc/i686-linux-gnu/5/libgcc.a(_udivdi3.o)
 .note.GNU-stack
                0x0000000000000000        0x0 /usr/lib/gcc/i686-linux-gnu/5/crtendS.o
 .note.GNU-stack
                0x0000000000000000        0x0 /usr/lib/gcc/i686-linux-gnu/5/../../../i386-linux-gnu/crtn.o

Memory Configuration

Name             Origin             Length             Attributes
*default*        0x0000000000000000 0xffffffffffffffff

Linker script and memory map

LOAD /usr/lib/gcc/i686-linux-gnu/5/../../../i386-linux-gnu/crti.o
LOAD /usr/lib/gcc/i686-linux-gnu/5/crtbeginS.o
LOAD coap-actuator-energy.o
LOAD build/cooja/mtype788.o
LOAD build/cooja/mtype788.a
LOAD /usr/lib/gcc/i686-linux-gnu/5/libgcc.a
LOAD /usr/lib/gcc/i686-linux-gnu/5/libgcc_s.so
LOAD /usr/lib/gcc/i686-linux-gnu/5/../../../i386-linux-gnu/libc.so
START GROUP
LOAD /lib/i386-linux-gnu/libc.so.6
LOAD /usr/lib/i386-linux-gnu/libc_nonshared.a
LOAD /lib/i386-linux-gnu/ld-linux.so.2
END GROUP
LOAD /usr/lib/gcc/i686-linux-gnu/5/libgcc.a
LOAD /usr/lib/gcc/i686-linux-gnu/5/libgcc_s.so
LOAD /usr/lib/gcc/i686-linux-gnu/5/crtendS.o
LOAD /usr/lib/gcc/i686-linux-gnu/5/../../../i386-linux-gnu/crtn.o
                0x0000000000000114                . = (0x0 + SIZEOF_HEADERS)

.note.gnu.build-id
                0x0000000000000114       0x24
 *(.note.gnu.build-id)
 .note.gnu.build-id
                0x0000000000000114       0x24 /usr/lib/gcc/i686-linux-gnu/5/../../../i386-linux-gnu/crti.o

.hash
 *(.hash)

.gnu.hash       0x0000000000000138     0x1588
 *(.gnu.hash)
 .gnu.hash      0x0000000000000138     0x1588 /usr/lib/gcc/i686-linux-gnu/5/../../../i386-linux-gnu/crti.o

.dynsym         0x00000000000016c0     0x2eb0
 *(.dynsym)
 .dynsym        0x00000000000016c0     0x2eb0 /usr/lib/gcc/i686-linux-gnu/5/../../../i386-linux-gnu/crti.o

.dynstr         0x0000000000004570     0x3673
 *(.dynstr)
 .dynstr        0x0000000000004570     0x3673 /usr/lib/gcc/i686-linux-gnu/5/../../../i386-linux-gnu/crti.o

.gnu.version    0x0000000000007be4      0x5d6
 *(.gnu.version)
 .gnu.version   0x0000000000007be4      0x5d6 /usr/lib/gcc/i686-linux-gnu/5/../../../i386-linux-gnu/crti.o

.gnu.version_d  0x00000000000081bc        0x0
 *(.gnu.version_d)
 .gnu.version_d
                0x00000000000081bc        0x0 /usr/lib/gcc/i686-linux-gnu/5/../../../i386-linux-gnu/crti.o

.gnu.version_r  0x00000000000081bc       0x40
 *(.gnu.version_r)
 .gnu.version_r
                0x00000000000081bc       0x40 /usr/lib/gcc/i686-linux-gnu/5/../../../i386-linux-gnu/crti.o

.rel.dyn        0x00000000000081fc     0x90c0
 *(.rel.init)
 .rel.init      0x00000000000081fc        0x0 /usr/lib/gcc/i686-linux-gnu/5/../../../i386-linux-gnu/crti.o
 *(.rel.text .rel.text.* .rel.gnu.linkonce.t.*)
 .rel.text      0x00000000000081fc     0x86e8 /usr/lib/gcc/i686-linux-gnu/5/../../../i386-linux-gnu/crti.o
 *(.rel.fini)
 .rel.fini      0x00000000000108e4        0x0 /usr/lib/gcc/i686-linux-gnu/5/../../../i386-linux-gnu/crti.o
 *(.rel.rodata .rel.rodata.* .rel.gnu.linkonce.r.*)
 .rel.rodata    0x00000000000108e4      0x588 /usr/lib/gcc/i686-linux-gnu/5/../../../i386-linux-gnu/crti.o
 *(.rel.data.rel.ro .rel.data.rel.ro.* .rel.gnu.linkonce.d.rel.ro.*)
 *(.rel.data .rel.data.* .rel.gnu.linkonce.d.*)
 .rel.data.rel.local
                0x0000000000010e6c        0x8 /usr/lib/gcc/i686-linux-gnu/5/../../../i386-linux-gnu/crti.o
 .rel.data      0x0000000000010e74      0x410 /usr/lib/gcc/i686-linux-gnu/5/../../../i386-linux-gnu/crti.o
 *(.rel.tdata .rel.tdata.* .rel.gnu.linkonce.td.*)
 *(.rel.tbss .rel.tbss.* .rel.gnu.linkonce.tb.*)
 *(.rel.ctors)
 *(.rel.dtors)
 *(.rel.got)
 .rel.got       0x0000000000011284       0x28 /usr/lib/gcc/i686-linux-gnu/5/../../../i386-linux-gnu/crti.o
 *(.rel.bss .rel.bss.* .rel.gnu.linkonce.b.*)
 *(.rel.ifunc)
 .rel.ifunc     0x00000000000112ac        0x0 /usr/lib/gcc/i686-linux-gnu/5/../../../i386-linux-gnu/crti.o
 .rel.fini_array
                0x00000000000112ac        0x8 /usr/lib/gcc/i686-linux-gnu/5/../../../i386-linux-gnu/crti.o
 .rel.init_array
                0x00000000000112b4        0x8 /usr/lib/gcc/i686-linux-gnu/5/../../../i386-linux-gnu/crti.o

.rel.plt        0x00000000000112bc        0x0
 *(.rel.plt)
 .rel.plt       0x00000000000112bc        0x0 /usr/lib/gcc/i686-linux-gnu/5/../../../i386-linux-gnu/crti.o
 *(.rel.iplt)

.init           0x00000000000112bc       0x23
 *(SORT(.init))
 .init          0x00000000000112bc       0x1e /usr/lib/gcc/i686-linux-gnu/5/../../../i386-linux-gnu/crti.o
                0x00000000000112bc                _init
 .init          0x00000000000112da        0x5 /usr/lib/gcc/i686-linux-gnu/5/../../../i386-linux-gnu/crtn.o

.plt            0x00000000000112e0       0x10
 *(.plt)
 .plt           0x00000000000112e0       0x10 /usr/lib/gcc/i686-linux-gnu/5/../../../i386-linux-gnu/crti.o
 *(.iplt)

.plt.got        0x00000000000112f0       0x10
 *(.plt.got)
 .plt.got       0x00000000000112f0       0x10 /usr/lib/gcc/i686-linux-gnu/5/../../../i386-linux-gnu/crti.o

.text           0x0000000000011300    0x18592
 *(.text.unlikely .text.*_unlikely .text.unlikely.*)
 .text.unlikely
                0x0000000000011300        0x0 /usr/lib/gcc/i686-linux-gnu/5/crtbeginS.o
 .text.unlikely
                0x0000000000011300        0x0 /usr/lib/gcc/i686-linux-gnu/5/libgcc.a(_udivdi3.o)
 *(.text.exit .text.exit.*)
 *(.text.startup .text.startup.*)
 *(.text.hot .text.hot.*)
 *(.text .stub .text.* .gnu.linkonce.t.*)
 .text          0x0000000000011300        0x0 /usr/lib/gcc/i686-linux-gnu/5/../../../i386-linux-gnu/crti.o
 .gnu.linkonce.t.__x86.get_pc_thunk.bx
                0x0000000000011300        0x4 /usr/lib/gcc/i686-linux-gnu/5/../../../i386-linux-gnu/crti.o
                0x0000000000011300                __x86.get_pc_thunk.bx
 *fill*         0x0000000000011304        0xc 
 .text          0x0000000000011310      0x11c /usr/lib/gcc/i686-linux-gnu/5/crtbeginS.o
 .text.__x86.get_pc_thunk.dx
                0x000000000001142c        0x4 /usr/lib/gcc/i686-linux-gnu/5/crtbeginS.o
                0x000000000001142c                __x86.get_pc_thunk.dx
 .text          0x0000000000011430       0x6f coap-actuator-energy.o
 .text          0x000000000001149f      0x283 build/cooja/mtype788.o
                0x0000000000011531                platform_init_stage_one
                0x0000000000011544                platform_init_stage_two
                0x0000000000011557                platform_init_stage_three
                0x000000000001156a                platform_main_loop
                0x00000000000115dd                Java_org_contikios_cooja_corecomm_Lib2_init
                0x0000000000011614                Java_org_contikios_cooja_corecomm_Lib2_getMemory
                0x0000000000011647                Java_org_contikios_cooja_corecomm_Lib2_setMemory
                0x00000000000116a7                Java_org_contikios_cooja_corecomm_Lib2_tick
                0x000000000001170f                Java_org_contikios_cooja_corecomm_Lib2_setReferenceAddress
 .text          0x0000000000011722       0x65 build/cooja/mtype788.a(simEnvChange.o)
                0x0000000000011722                doActionsBeforeTick
                0x0000000000011754                doActionsAfterTick
 .text          0x0000000000011787       0x83 build/cooja/mtype788.a(cooja_mt.o)
                0x0000000000011787                cooja_mt_start
                0x00000000000117b1                cooja_mt_exec
                0x00000000000117e7                cooja_mt_yield
 .text          0x000000000001180a       0xbe build/cooja/mtype788.a(cooja_mtarch.o)
                0x000000000001180a                cooja_mtarch_start
                0x000000000001187d                cooja_sw
                0x00000000000118a0                cooja_mtarch_exec
                0x00000000000118bd                cooja_mtarch_yield
 .text          0x00000000000118c8       0xc5 build/cooja/mtype788.a(rtimer-arch.o)
                0x00000000000118c8                rtimer_arch_init
                0x00000000000118ec                rtimer_arch_schedule
                0x000000000001191c                rtimer_arch_next
                0x000000000001192c                rtimer_arch_pending
                0x0000000000011936                rtimer_arch_check
                0x000000000001197d                rtimer_arch_now
 .text          0x000000000001198d       0x81 build/cooja/mtype788.a(beep.o)
                0x000000000001198d                beep_alarm
                0x000000000001199a                beep_beep
                0x00000000000119a7                beep
                0x00000000000119b4                beep_down
                0x00000000000119c1                beep_on
                0x00000000000119ce                beep_off
                0x00000000000119db                beep_spinup
                0x00000000000119e8                beep_quick
                0x00000000000119f5                beep_long
 .text          0x0000000000011a0e       0x65 build/cooja/mtype788.a(leds-arch.o)
                0x0000000000011a21                leds_arch_init
 .text          0x0000000000011a73       0x35 build/cooja/mtype788.a(moteid.o)
 .text          0x0000000000011aa8       0xb7 build/cooja/mtype788.a(pir-sensor.o)
 .text          0x0000000000011b5f      0x148 build/cooja/mtype788.a(rs232.o)
                0x0000000000011b5f                rs232_init
                0x0000000000011b65                rs232_set_speed
                0x0000000000011b74                rs232_set_input
                0x0000000000011b82                rs232_send
                0x0000000000011ba6                rs232_print
                0x0000000000011bc2                slip_arch_writeb
 .text          0x0000000000011ca7       0xb7 build/cooja/mtype788.a(vib-sensor.o)
 .text          0x0000000000011d5e       0x38 build/cooja/mtype788.a(clock.o)
                0x0000000000011d5e                clock_init
                0x0000000000011d64                clock_time
                0x0000000000011d6e                clock_seconds
                0x0000000000011d84                clock_delay
 .text          0x0000000000011d96      0x219 build/cooja/mtype788.a(cooja-log.o)
                0x0000000000011d96                simlog_char
                0x0000000000011dd9                simlog
                0x0000000000011e4f                log_message
                0x0000000000011e80                log_set_putchar_with_slip
                0x0000000000011e8e                log_putchar
                0x0000000000011f09                log_puts
                0x0000000000011f31                log_printf
 .text          0x0000000000011faf      0x2b9 build/cooja/mtype788.a(cfs-cooja.o)
                0x0000000000011faf                cfs_open
                0x0000000000012018                cfs_close
                0x0000000000012025                cfs_read
                0x00000000000120ba                cfs_write
                0x0000000000012196                cfs_seek
                0x000000000001221e                cfs_remove
                0x0000000000012242                cfs_opendir
                0x000000000001224c                cfs_readdir
                0x0000000000012256                cfs_closedir
 .text          0x0000000000012268      0x620 build/cooja/mtype788.a(cooja-radio.o)
                0x00000000000122aa                radio_set_channel
                0x00000000000122b8                radio_set_txpower
                0x00000000000122d0                radio_signal_strength_last
                0x00000000000122da                radio_signal_strength_current
                0x00000000000122e4                radio_LQI
 .text          0x0000000000012888       0xee build/cooja/mtype788.a(eeprom.o)
                0x0000000000012888                eeprom_init
                0x000000000001288e                eeprom_read
                0x00000000000128fc                eeprom_write
 .text          0x0000000000012976       0x2d build/cooja/mtype788.a(random.o)
                0x0000000000012976                random_init
                0x0000000000012996                random_rand
 .text          0x00000000000129a3      0x29c build/cooja/mtype788.a(sensors.o)
                0x00000000000129de                sensors_first
                0x00000000000129e8                sensors_next
                0x0000000000012a02                sensors_changed
                0x0000000000012a36                sensors_find
 .text          0x0000000000012c3f      0x349 build/cooja/mtype788.a(leds.o)
                0x0000000000012c3f                leds_init
                0x0000000000012c86                leds_single_on
                0x0000000000012ce5                leds_single_off
                0x0000000000012d44                leds_single_toggle
                0x0000000000012d76                leds_on
                0x0000000000012df8                leds_off
                0x0000000000012e7a                leds_toggle
                0x0000000000012ecf                leds_set
                0x0000000000012efb                leds_get
 .text          0x0000000000012f88      0x343 build/cooja/mtype788.a(gpio-hal-arch.o)
                0x0000000000012f88                gpio_hal_arch_register_pin_callback
                0x0000000000012ff4                gpio_hal_arch_init
                0x0000000000013039                gpio_hal_arch_no_port_interrupt_enable
                0x0000000000013069                gpio_hal_arch_no_port_interrupt_disable
                0x0000000000013099                gpio_hal_arch_no_port_pin_cfg_set
                0x00000000000130be                gpio_hal_arch_no_port_pin_cfg_get
                0x00000000000130e4                gpio_hal_arch_no_port_pin_set_input
                0x00000000000130f6                gpio_hal_arch_no_port_pin_set_output
                0x0000000000013108                gpio_hal_arch_no_port_set_pin
                0x0000000000013129                gpio_hal_arch_no_port_clear_pin
                0x000000000001314a                gpio_hal_arch_no_port_read_pin
                0x0000000000013170                gpio_hal_arch_no_port_write_pin
                0x000000000001319a                gpio_hal_arch_no_port_set_pins
                0x00000000000131e1                gpio_hal_arch_no_port_clear_pins
                0x0000000000013228                gpio_hal_arch_no_port_read_pins
                0x000000000001326b                gpio_hal_arch_no_port_write_pins
 .text          0x00000000000132cb       0x89 build/cooja/mtype788.a(buttons.o)
 .text          0x0000000000013354      0xbea build/cooja/mtype788.a(coap-engine.o)
                0x00000000000133e9                coap_add_handler
                0x0000000000013406                coap_remove_handler
                0x0000000000013423                coap_call_handlers
                0x000000000001352b                coap_receive
                0x0000000000013b26                coap_engine_init
                0x0000000000013b84                coap_activate_resource
                0x0000000000013c2f                coap_get_first_resource
                0x0000000000013c48                coap_get_next_resource
 .text          0x0000000000013f3e      0x2d9 build/cooja/mtype788.a(coap-res-well-k)
 .text          0x0000000000014217      0x96a build/cooja/mtype788.a(coap-observe.o)
                0x000000000001432c                coap_remove_observer
                0x000000000001435c                coap_remove_observer_by_client
                0x00000000000143c4                coap_remove_observer_by_token
                0x0000000000014457                coap_remove_observer_by_uri
                0x00000000000144fe                coap_remove_observer_by_mid
                0x000000000001457a                coap_notify_observers
                0x0000000000014593                coap_notify_observers_sub
                0x00000000000149fd                coap_observe_handler
                0x0000000000014b18                coap_has_observers
 .text          0x0000000000014b81      0x733 build/cooja/mtype788.a(coap-uip.o)
                0x0000000000014b81                coap_endpoint_log
                0x0000000000014c07                coap_endpoint_print
                0x0000000000014c8d                coap_endpoint_snprint
                0x0000000000014dc0                coap_endpoint_copy
                0x0000000000014dfd                coap_endpoint_cmp
                0x0000000000014f0b                coap_endpoint_parse
                0x00000000000150f6                coap_endpoint_is_secure
                0x0000000000015105                coap_endpoint_is_connected
                0x0000000000015139                coap_endpoint_connect
                0x0000000000015155                coap_endpoint_disconnect
                0x000000000001515b                coap_databuf
                0x0000000000015165                coap_transport_init
                0x00000000000151b5                coap_sendto
 .text          0x00000000000152b4      0x324 build/cooja/mtype788.a(coap-timer.o)
                0x00000000000153b1                coap_timer_stop
                0x00000000000153dc                coap_timer_set
                0x000000000001541f                coap_timer_reset
                0x0000000000015462                coap_timer_time_to_next_expiration
                0x00000000000154ce                coap_timer_run
                0x000000000001559a                coap_timer_init
 .text          0x00000000000155d8      0x2c6 build/cooja/mtype788.a(coap-transactio)
                0x000000000001563e                coap_new_transaction
                0x00000000000156a4                coap_send_transaction
                0x0000000000015805                coap_clear_transaction
                0x000000000001584d                coap_get_transaction_by_mid
 .text          0x000000000001589e     0x1c53 build/cooja/mtype788.a(coap.o)
                0x0000000000015e0b                coap_init_connection
                0x0000000000015e1f                coap_get_mid
                0x0000000000015e3b                coap_init_message
                0x0000000000015e84                coap_serialize_message
                0x0000000000016506                coap_parse_message
                0x0000000000016b6d                coap_get_query_variable
                0x0000000000016baf                coap_get_post_variable
                0x0000000000016bf3                coap_set_status_code
                0x0000000000016c18                coap_set_token
                0x0000000000016c5f                coap_get_header_content_format
                0x0000000000016c90                coap_set_header_content_format
                0x0000000000016cb3                coap_get_header_accept
                0x0000000000016ce4                coap_set_header_accept
                0x0000000000016d07                coap_get_header_max_age
                0x0000000000016d38                coap_set_header_max_age
                0x0000000000016d58                coap_get_header_etag
                0x0000000000016d8a                coap_set_header_etag
                0x0000000000016de1                coap_get_header_if_match
                0x0000000000016e13                coap_set_header_if_match
                0x0000000000016e6a                coap_get_header_if_none_match
                0x0000000000016e84                coap_set_header_if_none_match
                0x0000000000016e9b                coap_get_header_proxy_uri
                0x0000000000016ec9                coap_set_header_proxy_uri
                0x0000000000016f06                coap_get_header_uri_host
                0x0000000000016f34                coap_set_header_uri_host
                0x0000000000016f71                coap_get_header_uri_path
                0x0000000000016f9f                coap_set_header_uri_path
                0x0000000000016fec                coap_get_header_uri_query
                0x0000000000017020                coap_set_header_uri_query
                0x0000000000017076                coap_get_header_location_path
                0x00000000000170a4                coap_set_header_location_path
                0x000000000001713d                coap_get_header_location_query
                0x000000000001716b                coap_set_header_location_query
                0x00000000000171b8                coap_get_header_observe
                0x00000000000171e7                coap_set_header_observe
                0x0000000000017207                coap_get_header_block2
                0x0000000000017273                coap_set_header_block2
                0x00000000000172ea                coap_get_header_block1
                0x000000000001735f                coap_set_header_block1
                0x00000000000173da                coap_get_header_size2
                0x000000000001740a                coap_set_header_size2
                0x000000000001742d                coap_get_header_size1
                0x000000000001745d                coap_set_header_size1
                0x0000000000017480                coap_get_payload
                0x00000000000174ba                coap_set_payload
 .text          0x00000000000174f1      0x332 build/cooja/mtype788.a(contiki-main.o)
                0x00000000000174f1                main
 .text          0x0000000000017823       0x92 build/cooja/mtype788.a(autostart.o)
                0x0000000000017823                autostart_start
                0x000000000001786d                autostart_exit
 .text          0x00000000000178b5      0x355 build/cooja/mtype788.a(ctimer.o)
                0x00000000000179dd                ctimer_init
                0x0000000000017a10                ctimer_set
                0x0000000000017a36                ctimer_set_with_process
                0x0000000000017ab3                ctimer_reset
                0x0000000000017b07                ctimer_restart
                0x0000000000017b5b                ctimer_stop
                0x0000000000017bab                ctimer_expired
 .text          0x0000000000017c0a      0x394 build/cooja/mtype788.a(log.o)
                0x0000000000017c0a                log_6addr
                0x0000000000017c5d                log_6addr_compact_snprint
                0x0000000000017cfb                log_6addr_compact
                0x0000000000017d4e                log_lladdr
                0x0000000000017dc0                log_lladdr_compact
                0x0000000000017e28                log_set_level
                0x0000000000017ee3                log_get_level
                0x0000000000017f5c                log_level_to_str
 .text          0x0000000000017f9e       0x1b build/cooja/mtype788.a(energest.o)
                0x0000000000017f9e                energest_init
                0x0000000000017fa4                energest_flush
                0x0000000000017faa                energest_get_total_time
 .text          0x0000000000017fb9      0x43f build/cooja/mtype788.a(etimer.o)
                0x00000000000181dd                etimer_request_poll
                0x0000000000018266                etimer_set
                0x000000000001828f                etimer_reset_with_new_interval
                0x00000000000182be                etimer_reset
                0x00000000000182e4                etimer_restart
                0x000000000001830a                etimer_adjust
                0x0000000000018327                etimer_expired
                0x000000000001833a                etimer_expiration_time
                0x000000000001834c                etimer_start_time
                0x0000000000018356                etimer_pending
                0x0000000000018368                etimer_next_expiration_time
                0x0000000000018382                etimer_stop
 .text          0x00000000000183f8       0x25 build/cooja/mtype788.a(node-id.o)
                0x00000000000183f8                node_id_init
 .text          0x000000000001841d       0xeb build/cooja/mtype788.a(rtimer.o)
                0x000000000001841d                rtimer_init
                0x000000000001842b                rtimer_set
                0x00000000000184a6                rtimer_run_next
 .text          0x0000000000018508      0x4fb build/cooja/mtype788.a(process.o)
                0x0000000000018508                process_alloc_event
                0x000000000001851d                process_start
                0x00000000000186f7                process_exit
                0x0000000000018714                process_init
                0x00000000000188a9                process_run
                0x00000000000188dc                process_nevents
                0x00000000000188f7                process_post
                0x000000000001898a                process_post_synch
                0x00000000000189bf                process_poll
                0x00000000000189ef                process_is_running
 .text          0x0000000000018a03       0xb1 build/cooja/mtype788.a(timer.o)
                0x0000000000018a03                timer_set
                0x0000000000018a21                timer_reset
                0x0000000000018a4e                timer_restart
                0x0000000000018a63                timer_expired
                0x0000000000018a90                timer_remaining
 .text          0x0000000000018ab4      0x28f build/cooja/mtype788.a(list.o)
                0x0000000000018ab4                list_init
                0x0000000000018ac3                list_head
                0x0000000000018acd                list_copy
                0x0000000000018add                list_tail
                0x0000000000018b13                list_add
                0x0000000000018b5f                list_push
                0x0000000000018b8b                list_chop
                0x0000000000018bf5                list_pop
                0x0000000000018c1d                list_remove
                0x0000000000018c85                list_length
                0x0000000000018cb3                list_insert
                0x0000000000018cf8                list_item_next
                0x0000000000018d0f                list_contains
 .text          0x0000000000018d43      0x1b5 build/cooja/mtype788.a(memb.o)
                0x0000000000018d43                memb_init
                0x0000000000018d98                memb_alloc
                0x0000000000018dfb                memb_free
                0x0000000000018e72                memb_inmemb
                0x0000000000018eb1                memb_numfree
 .text          0x0000000000018ef8      0x41c build/cooja/mtype788.a(button-hal.o)
                0x0000000000019071                button_hal_get_by_id
                0x00000000000190af                button_hal_get_by_index
                0x00000000000190db                button_hal_get_state
                0x000000000001912d                button_hal_init
 .text          0x0000000000019314      0x1f3 build/cooja/mtype788.a(serial-line.o)
                0x0000000000019314                serial_line_input_byte
                0x00000000000194d2                serial_line_init
 .text          0x0000000000019507      0x168 build/cooja/mtype788.a(gpio-hal.o)
                0x0000000000019507                gpio_hal_register_handler
                0x0000000000019524                gpio_hal_event_handler
                0x0000000000019580                gpio_hal_init
                0x000000000001959f                gpio_hal_arch_port_toggle_pin
                0x00000000000195db                gpio_hal_arch_port_toggle_pins
                0x0000000000019609                gpio_hal_arch_no_port_toggle_pin
                0x0000000000019647                gpio_hal_arch_no_port_toggle_pins
 .text          0x000000000001966f      0x2e7 build/cooja/mtype788.a(queuebuf.o)
                0x0000000000019679                queuebuf_init
                0x00000000000196a2                queuebuf_numfree
                0x00000000000196ba                queuebuf_new_from_packetbuf
                0x0000000000019759                queuebuf_update_attr_from_packetbuf
                0x000000000001978e                queuebuf_update_from_packetbuf
                0x00000000000197de                queuebuf_free
                0x0000000000019827                queuebuf_to_packetbuf
                0x0000000000019893                queuebuf_dataptr
                0x00000000000198cd                queuebuf_datalen
                0x00000000000198f0                queuebuf_addr
                0x0000000000019925                queuebuf_attr
                0x0000000000019950                queuebuf_debug_print
 .text          0x0000000000019956      0x407 build/cooja/mtype788.a(packetbuf.o)
                0x0000000000019956                packetbuf_clear
                0x0000000000019981                packetbuf_copyfrom
                0x00000000000199d0                packetbuf_copyto
                0x0000000000019a63                packetbuf_hdralloc
                0x0000000000019adf                packetbuf_hdrreduce
                0x0000000000019b25                packetbuf_set_datalen
                0x0000000000019b3f                packetbuf_dataptr
                0x0000000000019b5c                packetbuf_hdrptr
                0x0000000000019b66                packetbuf_datalen
                0x0000000000019b72                packetbuf_hdrlen
                0x0000000000019b89                packetbuf_totlen
                0x0000000000019b9f                packetbuf_remaininglen
                0x0000000000019bb2                packetbuf_attr_clear
                0x0000000000019bfe                packetbuf_attr_copyto
                0x0000000000019c56                packetbuf_attr_copyfrom
                0x0000000000019cae                packetbuf_set_attr
                0x0000000000019cd8                packetbuf_attr
                0x0000000000019cf2                packetbuf_set_addr
                0x0000000000019d23                packetbuf_addr
                0x0000000000019d40                packetbuf_holds_broadcast
 .text          0x0000000000019d5d       0xef build/cooja/mtype788.a(netstack.o)
                0x0000000000019d5d                netstack_process_ip_callback
                0x0000000000019dee                netstack_ip_packet_processor_add
                0x0000000000019e11                uip_ds6_ip_packet_processor_rm
                0x0000000000019e2e                netstack_init
 .text          0x0000000000019e4c       0x4f build/cooja/mtype788.a(linkaddr.o)
                0x0000000000019e4c                linkaddr_copy
                0x0000000000019e62                linkaddr_cmp
                0x0000000000019e85                linkaddr_set_node_addr
 .text          0x0000000000019e9b      0x1f6 build/cooja/mtype788.a(csma.o)
 .text          0x000000000001a091      0x95d build/cooja/mtype788.a(csma-output.o)
                0x000000000001a728                csma_output_packet
                0x000000000001a9b5                csma_output_init
 .text          0x000000000001a9ee      0xc11 build/cooja/mtype788.a(uip-ds6.o)
                0x000000000001a9ee                uip_ds6_default_prefix
                0x000000000001a9f8                uip_ds6_set_default_prefix
                0x000000000001aa23                uip_ds6_init
                0x000000000001ac85                uip_ds6_periodic
                0x000000000001ad0c                uip_ds6_list_loop
                0x000000000001adcc                uip_ds6_prefix_add
                0x000000000001ae78                uip_ds6_prefix_rm
                0x000000000001ae8b                uip_ds6_prefix_lookup
                0x000000000001aeca                uip_ds6_is_addr_onlink
                0x000000000001af3d                uip_ds6_addr_add
                0x000000000001b05d                uip_ds6_addr_rm
                0x000000000001b106                uip_ds6_addr_lookup
                0x000000000001b13f                uip_ds6_get_link_local
                0x000000000001b1c0                uip_ds6_get_global
                0x000000000001b241                uip_ds6_maddr_add
                0x000000000001b2a1                uip_ds6_maddr_rm
                0x000000000001b2b4                uip_ds6_maddr_lookup
                0x000000000001b2ed                uip_ds6_aaddr_add
                0x000000000001b34d                uip_ds6_aaddr_rm
                0x000000000001b360                uip_ds6_aaddr_lookup
                0x000000000001b399                uip_ds6_select_src
                0x000000000001b4e2                uip_ds6_set_addr_iid
                0x000000000001b50d                uip_ds6_set_lladdr_from_iid
                0x000000000001b536                get_match_length
                0x000000000001b5c7                uip_ds6_compute_reachable_time
 .text          0x000000000001b5ff      0x128 build/cooja/mtype788.a(uip-udp-packet.)
                0x000000000001b5ff                uip_udp_packet_send
                0x000000000001b65a                uip_udp_packet_sendto
 .text          0x000000000001b727      0xa3c build/cooja/mtype788.a(uip-ds6-route.o)
                0x000000000001b811                uip_ds6_notification_add
                0x000000000001b843                uip_ds6_notification_rm
                0x000000000001b860                uip_ds6_route_init
                0x000000000001b8ff                uip_ds6_route_nexthop
                0x000000000001b92e                uip_ds6_route_head
                0x000000000001b947                uip_ds6_route_next
                0x000000000001b970                uip_ds6_route_is_nexthop
                0x000000000001b9b2                uip_ds6_route_num_routes
                0x000000000001b9bc                uip_ds6_route_lookup
                0x000000000001ba93                uip_ds6_route_add
                0x000000000001bcd3                uip_ds6_route_rm
                0x000000000001be71                uip_ds6_route_rm_by_nexthop
                0x000000000001beb0                uip_ds6_defrt_head
                0x000000000001bec9                uip_ds6_defrt_add
                0x000000000001bf8a                uip_ds6_defrt_rm
                0x000000000001c00b                uip_ds6_defrt_lookup
                0x000000000001c072                uip_ds6_defrt_choose
                0x000000000001c0e8                uip_ds6_defrt_periodic
 .text          0x000000000001c163      0x6f7 build/cooja/mtype788.a(tcpip.o)
                0x000000000001c17d                tcpip_output
                0x000000000001c1fc                udp_attach
                0x000000000001c214                udp_new
                0x000000000001c25e                udp_broadcast_new
                0x000000000001c3d0                tcpip_input
                0x000000000001c560                tcpip_ipv6_output
                0x000000000001c754                tcpip_poll_udp
                0x000000000001c772                tcpip_uipcall
 .text          0x000000000001c85a     0x1205 build/cooja/mtype788.a(uip6.o)
                0x000000000001c909                uip_chksum
                0x000000000001c9e0                uip_icmp6chksum
                0x000000000001c9f5                uip_udpchksum
                0x000000000001ca0a                uip_init
                0x000000000001ca53                uip_remove_ext_hdr
                0x000000000001cb2d                uip_udp_new
                0x000000000001ce41                uip_process
                0x000000000001d939                uip_htons
                0x000000000001d95b                uip_htonl
                0x000000000001d999                uip_send
 .text          0x000000000001da5f      0x369 build/cooja/mtype788.a(uip-ds6-nbr.o)
                0x000000000001da5f                uip_ds6_neighbors_init
                0x000000000001da83                uip_ds6_nbr_add
                0x000000000001db09                uip_ds6_nbr_rm
                0x000000000001db54                uip_ds6_nbr_update_ll
                0x000000000001dc42                uip_ds6_nbr_get_ipaddr
                0x000000000001dc57                uip_ds6_nbr_get_ll
                0x000000000001dc73                uip_ds6_nbr_num
                0x000000000001dcbc                uip_ds6_nbr_head
                0x000000000001dcd5                uip_ds6_nbr_next
                0x000000000001dcf1                uip_ds6_nbr_lookup
                0x000000000001dd49                uip_ds6_nbr_ll_lookup
                0x000000000001dd65                uip_ds6_nbr_ipaddr_from_lladdr
                0x000000000001dd8e                uip_ds6_nbr_lladdr_from_ipaddr
                0x000000000001ddc2                uip_ds6_link_callback
 .text          0x000000000001ddc8      0x6a7 build/cooja/mtype788.a(uip-nd6.o)
                0x000000000001e456                uip_nd6_init
 .text          0x000000000001e46f     0x2c17 build/cooja/mtype788.a(sicslowpan.o)
                0x000000000001ea76                netstack_sniffer_add
                0x000000000001ea84                netstack_sniffer_remove
                0x000000000002105a                sicslowpan_init
                0x000000000002107c                sicslowpan_get_last_rssi
 .text          0x0000000000021086      0x4d1 build/cooja/mtype788.a(uiplib.o)
                0x0000000000021086                uiplib_ip6addrconv
                0x000000000002123e                uiplib_ip4addrconv
                0x0000000000021301                uiplib_ipaddr_print
                0x0000000000021354                uiplib_ipaddr_snprint
 .text          0x0000000000021557      0x4c9 build/cooja/mtype788.a(rpl.o)
                0x0000000000021557                rpl_lollipop_greater_than
                0x00000000000215b1                rpl_get_global_address
                0x00000000000216a9                rpl_link_callback
                0x00000000000216ed                rpl_has_joined
                0x0000000000021712                rpl_is_reachable
                0x0000000000021793                rpl_reset_prefix
                0x00000000000217fd                rpl_set_prefix_from_addr
                0x00000000000218e2                rpl_set_prefix
                0x00000000000219fc                rpl_set_leaf_only
                0x0000000000021a14                rpl_get_leaf_only
 .text          0x0000000000021a20     0x138c build/cooja/mtype788.a(rpl-icmp6.o)
                0x0000000000021b45                rpl_icmp6_update_nbr_table
                0x0000000000021bce                rpl_icmp6_dis_output
                0x0000000000022214                rpl_icmp6_dio_output
                0x0000000000022a12                rpl_icmp6_dao_output
                0x0000000000022cf3                rpl_icmp6_dao_ack_output
                0x0000000000022d63                rpl_icmp6_init
 .text          0x0000000000022dac      0x264 build/cooja/mtype788.a(rpl-dag-root.o)
                0x0000000000022dac                rpl_dag_root_print_links
                0x0000000000022ed8                rpl_dag_root_set_prefix
                0x0000000000022f04                rpl_dag_root_start
                0x0000000000022fe1                rpl_dag_root_is_root
 .text          0x0000000000023010       0x30 build/cooja/mtype788.a(watchdog.o)
                0x0000000000023010                watchdog_init
                0x0000000000023016                watchdog_start
                0x000000000002301c                watchdog_periodic
                0x0000000000023034                watchdog_stop
                0x000000000002303a                watchdog_reboot
 .text          0x0000000000023040       0x4a build/cooja/mtype788.a(int-master.o)
                0x0000000000023040                int_master_enable
                0x0000000000023050                int_master_read_and_disable
                0x000000000002306d                int_master_status_set
                0x000000000002307b                int_master_is_enabled
 .text          0x000000000002308a      0x226 build/cooja/mtype788.a(coap-timer-defa)
 .text          0x00000000000232b0       0xc7 build/cooja/mtype788.a(stimer.o)
                0x00000000000232b0                stimer_set
                0x00000000000232ce                stimer_reset
                0x00000000000232fb                stimer_restart
                0x0000000000023310                stimer_expired
                0x000000000002333b                stimer_remaining
                0x000000000002335f                stimer_elapsed
 .text          0x0000000000023377      0x156 build/cooja/mtype788.a(ringbuf.o)
                0x0000000000023377                ringbuf_init
                0x00000000000233a9                ringbuf_put
                0x0000000000023427                ringbuf_get
                0x0000000000023494                ringbuf_size
                0x00000000000234a6                ringbuf_elements
 .text          0x00000000000234cd       0x1f build/cooja/mtype788.a(assert.o)
                0x00000000000234cd                _xassert
 .text          0x00000000000234ec      0x79b build/cooja/mtype788.a(nbr-table.o)
                0x0000000000023965                nbr_table_register
                0x00000000000239d2                nbr_table_is_registered
                0x0000000000023a0d                nbr_table_head
                0x0000000000023a68                nbr_table_next
                0x0000000000023ac9                nbr_table_add_lladdr
                0x0000000000023ba3                nbr_table_get_from_lladdr
                0x0000000000023bef                nbr_table_remove
                0x0000000000023c27                nbr_table_lock
                0x0000000000023c41                nbr_table_unlock
                0x0000000000023c5b                nbr_table_get_lladdr
 .text          0x0000000000023c87      0x3a5 build/cooja/mtype788.a(link-stats.o)
                0x0000000000023c87                link_stats_from_lladdr
                0x0000000000023ca3                link_stats_get_lladdr
                0x0000000000023cbf                link_stats_is_fresh
                0x0000000000023cfb                guess_etx_from_rssi
                0x0000000000023d77                link_stats_packet_sent
                0x0000000000023e97                link_stats_input_callback
                0x0000000000023fa7                link_stats_reset
                0x0000000000023ff7                link_stats_init
 .text          0x000000000002402c      0x187 build/cooja/mtype788.a(mac-sequence.o)
                0x000000000002402c                mac_sequence_is_duplicate
                0x00000000000240cc                mac_sequence_register_seqno
 .text          0x00000000000241b3       0x23 build/cooja/mtype788.a(mac.o)
                0x00000000000241b3                mac_call_sent_callback
 .text          0x00000000000241d6      0x432 build/cooja/mtype788.a(framer-802154.o)
                0x0000000000024365                framer_802154_setup_params
 .text          0x0000000000024608      0xb6f build/cooja/mtype788.a(frame802154.o)
                0x0000000000024639                frame802154_get_pan_id
                0x0000000000024645                frame802154_set_pan_id
                0x000000000002465f                frame802154_has_panid
                0x000000000002480e                frame802154_check_dest_panid
                0x0000000000024896                frame802154_is_broadcast_addr
                0x00000000000248e3                frame802154_extract_linkaddr
                0x0000000000024b48                frame802154_hdrlen
                0x0000000000024bbb                frame802154_create_fcf
                0x0000000000024c73                frame802154_create
                0x0000000000024de8                frame802154_parse_fcf
                0x0000000000024eca                frame802154_parse
 .text          0x0000000000025177       0x2d build/cooja/mtype788.a(csma-security.o)
                0x0000000000025177                csma_security_create_frame
                0x0000000000025195                csma_security_parse_frame
 .text          0x00000000000251a4      0x4e4 build/cooja/mtype788.a(uipbuf.o)
                0x00000000000251a4                uipbuf_clear
                0x00000000000251cb                uipbuf_add_ext_hdr
                0x000000000002524b                uipbuf_set_len
                0x0000000000025278                uipbuf_set_len_field
                0x00000000000252a4                uipbuf_get_len_field
                0x00000000000252c4                uipbuf_get_next_header
                0x00000000000253f6                uipbuf_get_last_header
                0x000000000002546f                uipbuf_search_header
                0x0000000000025525                uipbuf_get_attr
                0x000000000002554c                uipbuf_set_attr
                0x0000000000025583                uipbuf_set_default_attr
                0x00000000000255ba                uipbuf_clear_attr
                0x00000000000255de                uipbuf_set_attr_flag
                0x00000000000255ff                uipbuf_clr_attr_flag
                0x0000000000025626                uipbuf_is_attr_flag
                0x000000000002564a                uipbuf_init
 .text          0x0000000000025688      0x73f build/cooja/mtype788.a(uip-icmp6.o)
                0x00000000000256fd                uip_icmp6_input
                0x0000000000025754                uip_icmp6_register_input_handler
                0x00000000000258a7                uip_icmp6_error_output
                0x0000000000025b58                uip_icmp6_send
                0x0000000000025d4f                uip_icmp6_echo_reply_callback_add
                0x0000000000025d81                uip_icmp6_echo_reply_callback_rm
                0x0000000000025d9e                uip_icmp6_init
 .text          0x0000000000025dc7      0x69b build/cooja/mtype788.a(uip-sr.o)
                0x0000000000025dc7                uip_sr_num_nodes
                0x0000000000025e55                uip_sr_get_node
                0x0000000000025eac                uip_sr_is_addr_reachable
                0x0000000000025f5a                uip_sr_expire_parent
                0x0000000000025fa3                uip_sr_update_node
                0x00000000000260d3                uip_sr_init
                0x0000000000026107                uip_sr_node_head
                0x0000000000026120                uip_sr_node_next
                0x0000000000026136                uip_sr_periodic
                0x000000000002623c                uip_sr_free_all
                0x00000000000262ac                uip_sr_link_snprint
 .text          0x0000000000026462      0x146 build/cooja/mtype788.a(uip-packetqueue)
                0x0000000000026490                uip_packetqueue_new
                0x000000000002649f                uip_packetqueue_alloc
                0x00000000000264fa                uip_packetqueue_free
                0x0000000000026541                uip_packetqueue_buf
                0x000000000002655e                uip_packetqueue_buflen
                0x000000000002657f                uip_packetqueue_set_buflen
 .text          0x00000000000265a8      0x1b0 build/cooja/mtype788.a(rpl-nbr-policy.)
                0x0000000000026715                rpl_nbr_policy_find_removable
 .text          0x0000000000026758      0x915 build/cooja/mtype788.a(rpl-neighbor.o)
                0x00000000000267d4                rpl_neighbor_snprint
                0x0000000000026a87                rpl_neighbor_print_list
                0x0000000000026b3c                rpl_neighbor_count
                0x0000000000026be3                rpl_neighbor_get_from_lladdr
                0x0000000000026bff                rpl_neighbor_is_acceptable_parent
                0x0000000000026c33                rpl_neighbor_get_link_metric
                0x0000000000026c67                rpl_neighbor_rank_via_nbr
                0x0000000000026c9b                rpl_neighbor_get_lladdr
                0x0000000000026cb7                rpl_neighbor_get_ipaddr
                0x0000000000026cde                rpl_neighbor_get_link_stats
                0x0000000000026d05                rpl_neighbor_is_fresh
                0x0000000000026d2c                rpl_neighbor_is_reachable
                0x0000000000026d77                rpl_neighbor_is_parent
                0x0000000000026da1                rpl_neighbor_set_preferred_parent
                0x0000000000026e38                rpl_neighbor_remove_all
                0x0000000000026e94                rpl_neighbor_get_from_ipaddr
                0x0000000000026fa2                rpl_neighbor_select_best
                0x000000000002704e                rpl_neighbor_init
 .text          0x000000000002706d      0xe69 build/cooja/mtype788.a(rpl-dag.o)
                0x000000000002706d                rpl_dag_state_to_str
                0x00000000000270ac                rpl_dag_get_root_ipaddr
                0x00000000000270f4                rpl_dag_leave
                0x000000000002717d                rpl_dag_poison_and_leave
                0x0000000000027195                rpl_dag_periodic
                0x000000000002721d                rpl_is_addr_in_our_dag
                0x0000000000027261                rpl_get_default_instance
                0x000000000002727d                rpl_get_any_dag
                0x00000000000272d6                rpl_refresh_routes
                0x0000000000027316                rpl_global_repair
                0x00000000000273af                rpl_local_repair
                0x00000000000273f9                rpl_dag_ready_to_advertise
                0x000000000002743c                rpl_dag_update_state
                0x0000000000027b69                rpl_process_dio
                0x0000000000027be7                rpl_process_dis
                0x0000000000027c2c                rpl_process_dao
                0x0000000000027cbb                rpl_process_dao_ack
                0x0000000000027d52                rpl_process_hbh
                0x0000000000027da2                rpl_dag_init_root
                0x0000000000027eb6                rpl_dag_init
 .text          0x0000000000027ed6      0x9e7 build/cooja/mtype788.a(rpl-timers.o)
                0x0000000000027ed6                rpl_timers_schedule_periodic_dis
                0x0000000000028024                rpl_timers_dio_reset
                0x0000000000028132                rpl_timers_schedule_unicast_dio
                0x0000000000028286                rpl_timers_schedule_dao
                0x0000000000028345                rpl_timers_schedule_dao_ack
                0x00000000000283cb                rpl_timers_notify_dao_ack
                0x0000000000028429                get_probing_delay
                0x000000000002845d                get_probing_target
                0x0000000000028647                rpl_schedule_probing
                0x0000000000028675                rpl_schedule_probing_now
                0x00000000000286df                rpl_timers_unschedule_leaving
                0x0000000000028717                rpl_timers_schedule_leaving
                0x0000000000028758                rpl_timers_init
                0x00000000000287e8                rpl_timers_stop_dag_timers
                0x0000000000028861                rpl_timers_unschedule_state_update
                0x0000000000028885                rpl_timers_schedule_state_update
 .text          0x00000000000288bd      0xb8e build/cooja/mtype788.a(rpl-ext-header.)
                0x00000000000288bd                rpl_ext_header_srh_get_next_hop
                0x00000000000289a4                rpl_ext_header_srh_update
                0x0000000000028f10                rpl_ext_header_hbh_update
                0x0000000000029210                rpl_ext_header_update
                0x0000000000029299                rpl_ext_header_remove
 .text          0x000000000002944b      0x31b build/cooja/mtype788.a(rpl-mrhof.o)
 *fill*         0x0000000000029766        0xa 
 .text          0x0000000000029770      0x122 /usr/lib/gcc/i686-linux-gnu/5/libgcc.a(_udivdi3.o)
                0x0000000000029770                __udivdi3
 .text          0x0000000000029892        0x0 /usr/lib/gcc/i686-linux-gnu/5/crtendS.o
 .text          0x0000000000029892        0x0 /usr/lib/gcc/i686-linux-gnu/5/../../../i386-linux-gnu/crtn.o
 *(.gnu.warning)

.fini           0x0000000000029894       0x14
 *(SORT(.fini))
 .fini          0x0000000000029894        0xf /usr/lib/gcc/i686-linux-gnu/5/../../../i386-linux-gnu/crti.o
                0x0000000000029894                _fini
 .fini          0x00000000000298a3        0x5 /usr/lib/gcc/i686-linux-gnu/5/../../../i386-linux-gnu/crtn.o
                [!provide]                        PROVIDE (__etext, .)
                [!provide]                        PROVIDE (_etext, .)
                [!provide]                        PROVIDE (etext, .)

.rodata         0x00000000000298c0      0xa2b
 *(.rodata .rodata.* .gnu.linkonce.r.*)
 .rodata        0x00000000000298c0       0x6c coap-actuator-energy.o
                0x00000000000298e0                autostart_processes
 .rodata        0x000000000002992c        0x8 build/cooja/mtype788.a(beep.o)
                0x000000000002992c                beep_interface
 .rodata        0x0000000000029934        0xe build/cooja/mtype788.a(leds-arch.o)
                0x0000000000029934                leds_interface
                0x000000000002993c                leds_arch_leds
 *fill*         0x0000000000029942        0x2 
 .rodata        0x0000000000029944        0x8 build/cooja/mtype788.a(moteid.o)
                0x0000000000029944                moteid_interface
 .rodata        0x000000000002994c       0x1c build/cooja/mtype788.a(pir-sensor.o)
                0x000000000002994c                pir_interface
                0x0000000000029958                pir_sensor
 .rodata        0x0000000000029968        0xe build/cooja/mtype788.a(rs232.o)
                0x0000000000029968                rs232_interface
 *fill*         0x0000000000029976        0x2 
 .rodata        0x0000000000029978       0x24 build/cooja/mtype788.a(vib-sensor.o)
                0x0000000000029978                vib_interface
                0x000000000002998c                vib_sensor
 .rodata        0x000000000002999c        0x8 build/cooja/mtype788.a(clock.o)
                0x000000000002999c                clock_interface
 .rodata        0x00000000000299a4        0x8 build/cooja/mtype788.a(cooja-log.o)
                0x00000000000299a4                simlog_interface
 .rodata        0x00000000000299ac       0x2f build/cooja/mtype788.a(cfs-cooja.o)
                0x00000000000299ac                cfs_interface
 *fill*         0x00000000000299db        0x5 
 .rodata        0x00000000000299e0       0xb8 build/cooja/mtype788.a(cooja-radio.o)
                0x00000000000299e0                radio_interface
                0x0000000000029a60                cooja_radio_driver
 .rodata        0x0000000000029a98        0x8 build/cooja/mtype788.a(eeprom.o)
                0x0000000000029a98                eeprom_interface
 .rodata        0x0000000000029aa0        0x8 build/cooja/mtype788.a(sensors.o)
 .rodata        0x0000000000029aa8       0x2c build/cooja/mtype788.a(buttons.o)
                0x0000000000029aa8                button_interface
                0x0000000000029abc                button_hal_button_count
                0x0000000000029ac4                button_sensor
 .rodata        0x0000000000029ad4       0x41 build/cooja/mtype788.a(coap-engine.o)
 .rodata        0x0000000000029b15       0x19 build/cooja/mtype788.a(coap-res-well-k)
 .rodata        0x0000000000029b2e       0x11 build/cooja/mtype788.a(coap-observe.o)
 .rodata        0x0000000000029b3f       0x35 build/cooja/mtype788.a(coap-uip.o)
 .rodata        0x0000000000029b74      0x1ac build/cooja/mtype788.a(coap.o)
 .rodata        0x0000000000029d20       0xf4 build/cooja/mtype788.a(contiki-main.o)
 .rodata        0x0000000000029e14        0xf build/cooja/mtype788.a(ctimer.o)
 *fill*         0x0000000000029e23        0x1 
 .rodata        0x0000000000029e24       0xc4 build/cooja/mtype788.a(log.o)
 .rodata        0x0000000000029ee8        0xc build/cooja/mtype788.a(etimer.o)
 .rodata        0x0000000000029ef4       0x13 build/cooja/mtype788.a(button-hal.o)
 .rodata        0x0000000000029f07        0xe build/cooja/mtype788.a(serial-line.o)
 *fill*         0x0000000000029f15        0x3 
 .rodata        0x0000000000029f18        0x8 build/cooja/mtype788.a(linkaddr.o)
                0x0000000000029f18                linkaddr_null
 .rodata        0x0000000000029f20       0x24 build/cooja/mtype788.a(csma.o)
                0x0000000000029f28                csma_driver
 .rodata        0x0000000000029f44       0x27 build/cooja/mtype788.a(csma-output.o)
 *fill*         0x0000000000029f6b        0x1 
 .rodata        0x0000000000029f6c       0xb9 build/cooja/mtype788.a(uip-ds6-route.o)
 .rodata        0x000000000002a025        0xd build/cooja/mtype788.a(tcpip.o)
 *fill*         0x000000000002a032        0x2 
 .rodata        0x000000000002a034       0x30 build/cooja/mtype788.a(sicslowpan.o)
                0x000000000002a034                unc_llconf
                0x000000000002a038                unc_ctxconf
                0x000000000002a03c                unc_mxconf
                0x000000000002a040                llprefix
                0x000000000002a054                sicslowpan_driver
 .rodata        0x000000000002a064       0x2d build/cooja/mtype788.a(uiplib.o)
 *fill*         0x000000000002a091        0xf 
 .rodata        0x000000000002a0a0       0x74 build/cooja/mtype788.a(rpl.o)
                0x000000000002a0c0                rpl_lite_driver
 .rodata        0x000000000002a114       0x20 build/cooja/mtype788.a(coap-timer-defa)
                0x000000000002a128                coap_timer_default_driver
 .rodata        0x000000000002a134       0x25 build/cooja/mtype788.a(assert.o)
 *fill*         0x000000000002a159        0x3 
 .rodata        0x000000000002a15c        0xc build/cooja/mtype788.a(framer-802154.o)
                0x000000000002a15c                framer_802154
 .rodata        0x000000000002a168       0x44 build/cooja/mtype788.a(uip-sr.o)
 .rodata        0x000000000002a1ac       0x58 build/cooja/mtype788.a(rpl-neighbor.o)
 .rodata        0x000000000002a204       0xdb build/cooja/mtype788.a(rpl-dag.o)
 .rodata        0x000000000002a2df        0xc build/cooja/mtype788.a(rpl-timers.o)

.rodata1
 *(.rodata1)

.eh_frame_hdr   0x000000000002a2ec     0x19dc
 *(.eh_frame_hdr)
 .eh_frame_hdr  0x000000000002a2ec     0x19dc coap-actuator-energy.o
                0x000000000002a2ec                __GNU_EH_FRAME_HDR
 *(.eh_frame_entry .eh_frame_entry.*)

.eh_frame       0x000000000002bcc8     0x68e4
 *(.eh_frame)
 .eh_frame      0x000000000002bcc8       0x3c /usr/lib/gcc/i686-linux-gnu/5/../../../i386-linux-gnu/crti.o
                                         0x40 (size before relaxing)
 .eh_frame      0x000000000002bd04       0x20 coap-actuator-energy.o
                                         0x38 (size before relaxing)
 .eh_frame      0x000000000002bd24      0x178 build/cooja/mtype788.o
                                        0x190 (size before relaxing)
 .eh_frame      0x000000000002be9c       0x40 build/cooja/mtype788.a(simEnvChange.o)
                                         0x58 (size before relaxing)
 .eh_frame      0x000000000002bedc       0x60 build/cooja/mtype788.a(cooja_mt.o)
                                         0x78 (size before relaxing)
 .eh_frame      0x000000000002bf3c       0x80 build/cooja/mtype788.a(cooja_mtarch.o)
                                         0x98 (size before relaxing)
 .eh_frame      0x000000000002bfbc       0xc8 build/cooja/mtype788.a(rtimer-arch.o)
                                         0xe0 (size before relaxing)
 .eh_frame      0x000000000002c084      0x160 build/cooja/mtype788.a(beep.o)
                                        0x178 (size before relaxing)
 .eh_frame      0x000000000002c1e4       0x80 build/cooja/mtype788.a(leds-arch.o)
                                         0x98 (size before relaxing)
 .eh_frame      0x000000000002c264       0x40 build/cooja/mtype788.a(moteid.o)
                                         0x58 (size before relaxing)
 .eh_frame      0x000000000002c2a4       0xa0 build/cooja/mtype788.a(pir-sensor.o)
                                         0xb8 (size before relaxing)
 .eh_frame      0x000000000002c344      0x100 build/cooja/mtype788.a(rs232.o)
                                        0x118 (size before relaxing)
 .eh_frame      0x000000000002c444       0xa0 build/cooja/mtype788.a(vib-sensor.o)
                                         0xb8 (size before relaxing)
 .eh_frame      0x000000000002c4e4       0xc0 build/cooja/mtype788.a(clock.o)
                                         0xd8 (size before relaxing)
 .eh_frame      0x000000000002c5a4      0x120 build/cooja/mtype788.a(cooja-log.o)
                                        0x138 (size before relaxing)
 .eh_frame      0x000000000002c6c4      0x160 build/cooja/mtype788.a(cfs-cooja.o)
                                        0x178 (size before relaxing)
 .eh_frame      0x000000000002c824      0x340 build/cooja/mtype788.a(cooja-radio.o)
                                        0x358 (size before relaxing)
 .eh_frame      0x000000000002cb64       0xa0 build/cooja/mtype788.a(eeprom.o)
                                         0xb8 (size before relaxing)
 .eh_frame      0x000000000002cc04       0x40 build/cooja/mtype788.a(random.o)
                                         0x58 (size before relaxing)
 .eh_frame      0x000000000002cc44       0xc0 build/cooja/mtype788.a(sensors.o)
                                         0xd8 (size before relaxing)
 .eh_frame      0x000000000002cd04      0x120 build/cooja/mtype788.a(leds.o)
                                        0x138 (size before relaxing)
 .eh_frame      0x000000000002ce24      0x220 build/cooja/mtype788.a(gpio-hal-arch.o)
                                        0x238 (size before relaxing)
 .eh_frame      0x000000000002d044       0xa0 build/cooja/mtype788.a(buttons.o)
                                         0xb8 (size before relaxing)
 .eh_frame      0x000000000002d0e4      0x220 build/cooja/mtype788.a(coap-engine.o)
                                        0x238 (size before relaxing)
 .eh_frame      0x000000000002d304       0x24 build/cooja/mtype788.a(coap-res-well-k)
                                         0x3c (size before relaxing)
 .eh_frame      0x000000000002d328      0x188 build/cooja/mtype788.a(coap-observe.o)
                                        0x1a0 (size before relaxing)
 .eh_frame      0x000000000002d4b0      0x250 build/cooja/mtype788.a(coap-uip.o)
                                        0x268 (size before relaxing)
 .eh_frame      0x000000000002d700      0x114 build/cooja/mtype788.a(coap-timer.o)
                                        0x12c (size before relaxing)
 .eh_frame      0x000000000002d814      0x100 build/cooja/mtype788.a(coap-transactio)
                                        0x118 (size before relaxing)
 .eh_frame      0x000000000002d914      0x6ec build/cooja/mtype788.a(coap.o)
                                        0x704 (size before relaxing)
 .eh_frame      0x000000000002e000       0x30 build/cooja/mtype788.a(contiki-main.o)
                                         0x48 (size before relaxing)
 .eh_frame      0x000000000002e030       0x40 build/cooja/mtype788.a(autostart.o)
                                         0x58 (size before relaxing)
 .eh_frame      0x000000000002e070      0x100 build/cooja/mtype788.a(ctimer.o)
                                        0x118 (size before relaxing)
 .eh_frame      0x000000000002e170      0x100 build/cooja/mtype788.a(log.o)
                                        0x118 (size before relaxing)
 .eh_frame      0x000000000002e270       0x60 build/cooja/mtype788.a(energest.o)
                                         0x78 (size before relaxing)
 .eh_frame      0x000000000002e2d0      0x1e0 build/cooja/mtype788.a(etimer.o)
                                        0x1f8 (size before relaxing)
 .eh_frame      0x000000000002e4b0       0x20 build/cooja/mtype788.a(node-id.o)
                                         0x38 (size before relaxing)
 .eh_frame      0x000000000002e4d0       0x60 build/cooja/mtype788.a(rtimer.o)
                                         0x78 (size before relaxing)
 .eh_frame      0x000000000002e530      0x1c4 build/cooja/mtype788.a(process.o)
                                        0x1dc (size before relaxing)
 .eh_frame      0x000000000002e6f4       0xa4 build/cooja/mtype788.a(timer.o)
                                         0xbc (size before relaxing)
 .eh_frame      0x000000000002e798      0x1a0 build/cooja/mtype788.a(list.o)
                                        0x1b8 (size before relaxing)
 .eh_frame      0x000000000002e938       0xa0 build/cooja/mtype788.a(memb.o)
                                         0xb8 (size before relaxing)
 .eh_frame      0x000000000002e9d8      0x144 build/cooja/mtype788.a(button-hal.o)
                                        0x15c (size before relaxing)
 .eh_frame      0x000000000002eb1c       0x60 build/cooja/mtype788.a(serial-line.o)
                                         0x78 (size before relaxing)
 .eh_frame      0x000000000002eb7c       0xe0 build/cooja/mtype788.a(gpio-hal.o)
                                         0xf8 (size before relaxing)
 .eh_frame      0x000000000002ec5c      0x1a0 build/cooja/mtype788.a(queuebuf.o)
                                        0x1b8 (size before relaxing)
 .eh_frame      0x000000000002edfc      0x28c build/cooja/mtype788.a(packetbuf.o)
                                        0x2a4 (size before relaxing)
 .eh_frame      0x000000000002f088       0x80 build/cooja/mtype788.a(netstack.o)
                                         0x98 (size before relaxing)
 .eh_frame      0x000000000002f108       0x60 build/cooja/mtype788.a(linkaddr.o)
                                         0x78 (size before relaxing)
 .eh_frame      0x000000000002f168       0xe0 build/cooja/mtype788.a(csma.o)
                                         0xf8 (size before relaxing)
 .eh_frame      0x000000000002f248      0x1d0 build/cooja/mtype788.a(csma-output.o)
                                        0x1e8 (size before relaxing)
 .eh_frame      0x000000000002f418      0x328 build/cooja/mtype788.a(uip-ds6.o)
                                        0x340 (size before relaxing)
 .eh_frame      0x000000000002f740       0x40 build/cooja/mtype788.a(uip-udp-packet.)
                                         0x58 (size before relaxing)
 .eh_frame      0x000000000002f780      0x2e0 build/cooja/mtype788.a(uip-ds6-route.o)
                                        0x2f8 (size before relaxing)
 .eh_frame      0x000000000002fa60      0x244 build/cooja/mtype788.a(tcpip.o)
                                        0x25c (size before relaxing)
 .eh_frame      0x000000000002fca4      0x1e8 build/cooja/mtype788.a(uip6.o)
                                        0x200 (size before relaxing)
 .eh_frame      0x000000000002fe8c      0x1c0 build/cooja/mtype788.a(uip-ds6-nbr.o)
                                        0x1d8 (size before relaxing)
 .eh_frame      0x000000000003004c       0x84 build/cooja/mtype788.a(uip-nd6.o)
                                         0x9c (size before relaxing)
 .eh_frame      0x00000000000300d0      0x2f8 build/cooja/mtype788.a(sicslowpan.o)
                                        0x310 (size before relaxing)
 .eh_frame      0x00000000000303c8       0x88 build/cooja/mtype788.a(uiplib.o)
                                         0xa0 (size before relaxing)
 .eh_frame      0x0000000000030450      0x1e0 build/cooja/mtype788.a(rpl.o)
                                        0x1f8 (size before relaxing)
 .eh_frame      0x0000000000030630      0x1c4 build/cooja/mtype788.a(rpl-icmp6.o)
                                        0x1dc (size before relaxing)
 .eh_frame      0x00000000000307f4       0xa0 build/cooja/mtype788.a(rpl-dag-root.o)
                                         0xb8 (size before relaxing)
 .eh_frame      0x0000000000030894       0xa0 build/cooja/mtype788.a(watchdog.o)
                                         0xb8 (size before relaxing)
 .eh_frame      0x0000000000030934       0x80 build/cooja/mtype788.a(int-master.o)
                                         0x98 (size before relaxing)
 .eh_frame      0x00000000000309b4       0xa4 build/cooja/mtype788.a(coap-timer-defa)
                                         0xbc (size before relaxing)
 .eh_frame      0x0000000000030a58       0xc4 build/cooja/mtype788.a(stimer.o)
                                         0xdc (size before relaxing)
 .eh_frame      0x0000000000030b1c       0xa0 build/cooja/mtype788.a(ringbuf.o)
                                         0xb8 (size before relaxing)
 .eh_frame      0x0000000000030bbc       0x20 build/cooja/mtype788.a(assert.o)
                                         0x38 (size before relaxing)
 .eh_frame      0x0000000000030bdc      0x2ac build/cooja/mtype788.a(nbr-table.o)
                                        0x2c4 (size before relaxing)
 .eh_frame      0x0000000000030e88      0x120 build/cooja/mtype788.a(link-stats.o)
                                        0x138 (size before relaxing)
 .eh_frame      0x0000000000030fa8       0x48 build/cooja/mtype788.a(mac-sequence.o)
                                         0x60 (size before relaxing)
 .eh_frame      0x0000000000030ff0       0x20 build/cooja/mtype788.a(mac.o)
                                         0x38 (size before relaxing)
 .eh_frame      0x0000000000031010       0xa4 build/cooja/mtype788.a(framer-802154.o)
                                         0xbc (size before relaxing)
 .eh_frame      0x00000000000310b4      0x1a4 build/cooja/mtype788.a(frame802154.o)
                                        0x1bc (size before relaxing)
 .eh_frame      0x0000000000031258       0x40 build/cooja/mtype788.a(csma-security.o)
                                         0x58 (size before relaxing)
 .eh_frame      0x0000000000031298      0x200 build/cooja/mtype788.a(uipbuf.o)
                                        0x218 (size before relaxing)
 .eh_frame      0x0000000000031498      0x150 build/cooja/mtype788.a(uip-icmp6.o)
                                        0x168 (size before relaxing)
 .eh_frame      0x00000000000315e8      0x184 build/cooja/mtype788.a(uip-sr.o)
                                        0x19c (size before relaxing)
 .eh_frame      0x000000000003176c       0xe0 build/cooja/mtype788.a(uip-packetqueue)
                                         0xf8 (size before relaxing)
 .eh_frame      0x000000000003184c       0x80 build/cooja/mtype788.a(rpl-nbr-policy.)
                                         0x98 (size before relaxing)
 .eh_frame      0x00000000000318cc      0x2d4 build/cooja/mtype788.a(rpl-neighbor.o)
                                        0x2ec (size before relaxing)
 .eh_frame      0x0000000000031ba0      0x370 build/cooja/mtype788.a(rpl-dag.o)
                                        0x388 (size before relaxing)
 .eh_frame      0x0000000000031f10      0x3a8 build/cooja/mtype788.a(rpl-timers.o)
                                        0x3c0 (size before relaxing)
 .eh_frame      0x00000000000322b8      0x124 build/cooja/mtype788.a(rpl-ext-header.)
                                        0x13c (size before relaxing)
 .eh_frame      0x00000000000323dc      0x148 build/cooja/mtype788.a(rpl-mrhof.o)
                                        0x160 (size before relaxing)
 .eh_frame      0x0000000000032524       0x84 /usr/lib/gcc/i686-linux-gnu/5/libgcc.a(_udivdi3.o)
                                         0x9c (size before relaxing)
 .eh_frame      0x00000000000325a8        0x4 /usr/lib/gcc/i686-linux-gnu/5/crtendS.o
 *(.eh_frame.*)

.gcc_except_table
 *(.gcc_except_table .gcc_except_table.*)

.gnu_extab
 *(.gnu_extab*)

.exception_ranges
 *(.exception_ranges .exception_ranges*)
                0x0000000000033f10                . = DATA_SEGMENT_ALIGN (0x1000, 0x1000)

.eh_frame
 *(.eh_frame)
 *(.eh_frame.*)

.gnu_extab
 *(.gnu_extab)

.gcc_except_table
 *(.gcc_except_table .gcc_except_table.*)

.exception_ranges
 *(.exception_ranges .exception_ranges*)

.tdata
 *(.tdata .tdata.* .gnu.linkonce.td.*)

.tbss
 *(.tbss .tbss.* .gnu.linkonce.tb.*)
 *(.tcommon)

.preinit_array
 *(.preinit_array)

.init_array     0x0000000000033f10        0x4
 *(SORT(.init_array.*) SORT(.ctors.*))
 *(.init_array EXCLUDE_FILE(*crtend?.o *crtend.o *crtbegin?.o *crtbegin.o) .ctors)
 .init_array    0x0000000000033f10        0x4 /usr/lib/gcc/i686-linux-gnu/5/crtbeginS.o

.fini_array     0x0000000000033f14        0x4
 *(SORT(.fini_array.*) SORT(.dtors.*))
 *(.fini_array EXCLUDE_FILE(*crtend?.o *crtend.o *crtbegin?.o *crtbegin.o) .dtors)
 .fini_array    0x0000000000033f14        0x4 /usr/lib/gcc/i686-linux-gnu/5/crtbeginS.o

.ctors
 *crtbegin.o(.ctors)
 *crtbegin?.o(.ctors)
 *(EXCLUDE_FILE(*crtend?.o *crtend.o) .ctors)
 *(SORT(.ctors.*))
 *(.ctors)

.dtors
 *crtbegin.o(.dtors)
 *crtbegin?.o(.dtors)
 *(EXCLUDE_FILE(*crtend?.o *crtend.o) .dtors)
 *(SORT(.dtors.*))
 *(.dtors)

.jcr            0x0000000000033f18        0x4
 *(.jcr)
 .jcr           0x0000000000033f18        0x0 /usr/lib/gcc/i686-linux-gnu/5/crtbeginS.o
 .jcr           0x0000000000033f18        0x4 /usr/lib/gcc/i686-linux-gnu/5/crtendS.o

.data.rel.ro
 *(.data.rel.ro.local* .gnu.linkonce.d.rel.ro.local.*)
 *(.data.rel.ro .data.rel.ro.* .gnu.linkonce.d.rel.ro.*)

.dynamic        0x0000000000033f1c       0xd0
 *(.dynamic)
 .dynamic       0x0000000000033f1c       0xd0 /usr/lib/gcc/i686-linux-gnu/5/../../../i386-linux-gnu/crti.o
                0x0000000000033f1c                _DYNAMIC

.got            0x0000000000033fec       0x14
 *(.got)
 .got           0x0000000000033fec       0x14 /usr/lib/gcc/i686-linux-gnu/5/../../../i386-linux-gnu/crti.o
 *(.igot)
                0x0000000000034ff4                . = DATA_SEGMENT_RELRO_END (., (SIZEOF (.got.plt) >= 0xc)?0xc:0x0)

.got.plt        0x0000000000034000        0xc
 *(.got.plt)
 .got.plt       0x0000000000034000        0xc /usr/lib/gcc/i686-linux-gnu/5/../../../i386-linux-gnu/crti.o
                0x0000000000034000                _GLOBAL_OFFSET_TABLE_
 *(.igot.plt)

.data           0x0000000000034020      0x444
 *(.data .data.* .gnu.linkonce.d.*)
 .data          0x0000000000034020        0x0 /usr/lib/gcc/i686-linux-gnu/5/../../../i386-linux-gnu/crti.o
 .data          0x0000000000034020        0x0 /usr/lib/gcc/i686-linux-gnu/5/crtbeginS.o
 .data.rel.local
                0x0000000000034020        0x4 /usr/lib/gcc/i686-linux-gnu/5/crtbeginS.o
                0x0000000000034020                __dso_handle
 .data          0x0000000000034024       0x10 coap-actuator-energy.o
                0x0000000000034024                coap_energy_actuator
 *fill*         0x0000000000034034        0xc 
 .data          0x0000000000034040       0x44 build/cooja/mtype788.o
                0x0000000000034040                simInterfaces
                0x0000000000034074                sensors
 .data          0x0000000000034084        0x0 build/cooja/mtype788.a(simEnvChange.o)
 .data          0x0000000000034084        0x0 build/cooja/mtype788.a(cooja_mt.o)
 .data          0x0000000000034084        0x0 build/cooja/mtype788.a(cooja_mtarch.o)
 .data          0x0000000000034084        0x0 build/cooja/mtype788.a(rtimer-arch.o)
 .data          0x0000000000034084        0x0 build/cooja/mtype788.a(beep.o)
 .data          0x0000000000034084        0x0 build/cooja/mtype788.a(leds-arch.o)
 .data          0x0000000000034084        0x0 build/cooja/mtype788.a(moteid.o)
 .data          0x0000000000034084        0x0 build/cooja/mtype788.a(pir-sensor.o)
 .data          0x0000000000034084        0x0 build/cooja/mtype788.a(rs232.o)
 .data          0x0000000000034084        0x0 build/cooja/mtype788.a(vib-sensor.o)
 .data          0x0000000000034084        0x0 build/cooja/mtype788.a(clock.o)
 .data          0x0000000000034084        0x0 build/cooja/mtype788.a(cooja-log.o)
 .data          0x0000000000034084        0x0 build/cooja/mtype788.a(cfs-cooja.o)
 .data          0x0000000000034084       0x2c build/cooja/mtype788.a(cooja-radio.o)
                0x0000000000034084                simRadioHWOn
                0x0000000000034088                simSignalStrength
                0x000000000003408c                simLastSignalStrength
                0x0000000000034090                simPower
                0x0000000000034094                simRadioChannel
                0x0000000000034098                simLQI
                0x00000000000340a0                cooja_radio_process
 .data          0x00000000000340b0        0x0 build/cooja/mtype788.a(eeprom.o)
 .data          0x00000000000340b0        0x0 build/cooja/mtype788.a(random.o)
 .data          0x00000000000340b0       0x10 build/cooja/mtype788.a(sensors.o)
                0x00000000000340b0                sensors_process
 .data          0x00000000000340c0        0x0 build/cooja/mtype788.a(leds.o)
 .data          0x00000000000340c0        0x0 build/cooja/mtype788.a(gpio-hal-arch.o)
 .data          0x00000000000340c0       0x78 build/cooja/mtype788.a(buttons.o)
                0x00000000000340c0                simButtonIsActive
                0x0000000000034130                button_hal_buttons
 .data          0x0000000000034138        0x8 build/cooja/mtype788.a(coap-engine.o)
 .data          0x0000000000034140       0x24 build/cooja/mtype788.a(coap-res-well-k)
                0x0000000000034140                res_well_known_core
 .data          0x0000000000034164       0x10 build/cooja/mtype788.a(coap-observe.o)
 .data          0x0000000000034174       0x10 build/cooja/mtype788.a(coap-uip.o)
                0x0000000000034174                coap_engine
 .data          0x0000000000034184        0x4 build/cooja/mtype788.a(coap-timer.o)
 .data          0x0000000000034188       0x10 build/cooja/mtype788.a(coap-transactio)
 .data          0x0000000000034198        0x4 build/cooja/mtype788.a(coap.o)
                0x0000000000034198                coap_error_message
 .data          0x000000000003419c        0x0 build/cooja/mtype788.a(contiki-main.o)
 .data          0x000000000003419c        0x0 build/cooja/mtype788.a(autostart.o)
 .data          0x000000000003419c       0x14 build/cooja/mtype788.a(ctimer.o)
                0x00000000000341a0                ctimer_process
 *fill*         0x00000000000341b0       0x10 
 .data          0x00000000000341c0       0xbc build/cooja/mtype788.a(log.o)
                0x00000000000341c0                curr_log_level_main
                0x00000000000341e0                all_modules
 .data          0x000000000003427c        0x0 build/cooja/mtype788.a(energest.o)
 .data          0x000000000003427c       0x10 build/cooja/mtype788.a(etimer.o)
                0x000000000003427c                etimer_process
 .data          0x000000000003428c        0x0 build/cooja/mtype788.a(node-id.o)
 .data          0x000000000003428c        0x0 build/cooja/mtype788.a(rtimer.o)
 .data          0x000000000003428c        0x0 build/cooja/mtype788.a(process.o)
 .data          0x000000000003428c        0x0 build/cooja/mtype788.a(timer.o)
 .data          0x000000000003428c        0x0 build/cooja/mtype788.a(list.o)
 .data          0x000000000003428c        0x0 build/cooja/mtype788.a(memb.o)
 .data          0x000000000003428c       0x10 build/cooja/mtype788.a(button-hal.o)
                0x000000000003428c                button_hal_process
 .data          0x000000000003429c       0x10 build/cooja/mtype788.a(serial-line.o)
                0x000000000003429c                serial_line_process
 .data          0x00000000000342ac        0x4 build/cooja/mtype788.a(gpio-hal.o)
 .data          0x00000000000342b0       0x18 build/cooja/mtype788.a(queuebuf.o)
 .data          0x00000000000342c8        0x4 build/cooja/mtype788.a(packetbuf.o)
 .data          0x00000000000342cc        0x4 build/cooja/mtype788.a(netstack.o)
 .data          0x00000000000342d0        0x0 build/cooja/mtype788.a(linkaddr.o)
 .data          0x00000000000342d0        0x0 build/cooja/mtype788.a(csma.o)
 .data          0x00000000000342d0       0x28 build/cooja/mtype788.a(csma-output.o)
 .data          0x00000000000342f8        0x0 build/cooja/mtype788.a(uip-ds6.o)
 .data          0x00000000000342f8        0x0 build/cooja/mtype788.a(uip-udp-packet.)
 .data          0x00000000000342f8       0x44 build/cooja/mtype788.a(uip-ds6-route.o)
                0x0000000000034308                nbr_routes
 .data          0x000000000003433c       0x10 build/cooja/mtype788.a(tcpip.o)
                0x000000000003433c                tcpip_process
 .data          0x000000000003434c        0x0 build/cooja/mtype788.a(uip6.o)
 .data          0x000000000003434c       0x14 build/cooja/mtype788.a(uip-ds6-nbr.o)
 .data          0x0000000000034360        0xc build/cooja/mtype788.a(uip-nd6.o)
 .data          0x000000000003436c        0x0 build/cooja/mtype788.a(sicslowpan.o)
 .data          0x000000000003436c        0x0 build/cooja/mtype788.a(uiplib.o)
 .data          0x000000000003436c        0x0 build/cooja/mtype788.a(rpl.o)
 .data          0x000000000003436c       0x30 build/cooja/mtype788.a(rpl-icmp6.o)
 .data          0x000000000003439c        0x0 build/cooja/mtype788.a(rpl-dag-root.o)
 .data          0x000000000003439c        0x0 build/cooja/mtype788.a(watchdog.o)
 .data          0x000000000003439c        0x0 build/cooja/mtype788.a(int-master.o)
 .data          0x000000000003439c       0x10 build/cooja/mtype788.a(coap-timer-defa)
                0x000000000003439c                coap_timer_process
 .data          0x00000000000343ac        0x0 build/cooja/mtype788.a(stimer.o)
 .data          0x00000000000343ac        0x0 build/cooja/mtype788.a(ringbuf.o)
 .data          0x00000000000343ac        0x0 build/cooja/mtype788.a(assert.o)
 .data          0x00000000000343ac       0x10 build/cooja/mtype788.a(nbr-table.o)
 .data          0x00000000000343bc       0x14 build/cooja/mtype788.a(link-stats.o)
 .data          0x00000000000343d0        0x0 build/cooja/mtype788.a(mac-sequence.o)
 .data          0x00000000000343d0        0x0 build/cooja/mtype788.a(mac.o)
 .data          0x00000000000343d0        0x0 build/cooja/mtype788.a(framer-802154.o)
 .data          0x00000000000343d0        0x2 build/cooja/mtype788.a(frame802154.o)
 .data          0x00000000000343d2        0x0 build/cooja/mtype788.a(csma-security.o)
 .data          0x00000000000343d2        0x0 build/cooja/mtype788.a(uipbuf.o)
 *fill*         0x00000000000343d2        0x2 
 .data          0x00000000000343d4       0x20 build/cooja/mtype788.a(uip-icmp6.o)
 .data          0x00000000000343f4       0x10 build/cooja/mtype788.a(uip-sr.o)
 .data          0x0000000000034404        0xc build/cooja/mtype788.a(uip-packetqueue)
 .data          0x0000000000034410        0x0 build/cooja/mtype788.a(rpl-nbr-policy.)
 .data          0x0000000000034410       0x14 build/cooja/mtype788.a(rpl-neighbor.o)
                0x0000000000034420                rpl_neighbors
 .data          0x0000000000034424        0x0 build/cooja/mtype788.a(rpl-dag.o)
 .data          0x0000000000034424        0x0 build/cooja/mtype788.a(rpl-timers.o)
 .data          0x0000000000034424        0x0 build/cooja/mtype788.a(rpl-ext-header.)
 *fill*         0x0000000000034424       0x1c 
 .data          0x0000000000034440       0x24 build/cooja/mtype788.a(rpl-mrhof.o)
                0x0000000000034440                rpl_mrhof
 .data          0x0000000000034464        0x0 /usr/lib/gcc/i686-linux-gnu/5/libgcc.a(_udivdi3.o)
 .data          0x0000000000034464        0x0 /usr/lib/gcc/i686-linux-gnu/5/crtendS.o
 .data          0x0000000000034464        0x0 /usr/lib/gcc/i686-linux-gnu/5/../../../i386-linux-gnu/crtn.o

.tm_clone_table
                0x0000000000034464        0x0
 .tm_clone_table
                0x0000000000034464        0x0 /usr/lib/gcc/i686-linux-gnu/5/crtbeginS.o
 .tm_clone_table
                0x0000000000034464        0x0 /usr/lib/gcc/i686-linux-gnu/5/crtendS.o

.data1
 *(.data1)
                0x0000000000034464                _edata = .
                [!provide]                        PROVIDE (edata, .)
                0x0000000000034464                . = .
                0x0000000000034464                __bss_start = .

.bss            0x0000000000034480     0xf104
 *(.dynbss)
 .dynbss        0x0000000000034480        0x0 /usr/lib/gcc/i686-linux-gnu/5/../../../i386-linux-gnu/crti.o
 *(.bss .bss.* .gnu.linkonce.b.*)
 .bss           0x0000000000034480        0x0 /usr/lib/gcc/i686-linux-gnu/5/../../../i386-linux-gnu/crti.o
 .bss           0x0000000000034480        0x1 /usr/lib/gcc/i686-linux-gnu/5/crtbeginS.o
 .bss           0x0000000000034481        0x0 coap-actuator-energy.o
 *fill*         0x0000000000034481       0x1f 
 .bss           0x00000000000344a0     0x2030 build/cooja/mtype788.o
 .bss           0x00000000000364d0        0x1 build/cooja/mtype788.a(simEnvChange.o)
                0x00000000000364d0                simDontFallAsleep
 *fill*         0x00000000000364d1        0x3 
 .bss           0x00000000000364d4        0x4 build/cooja/mtype788.a(cooja_mt.o)
 .bss           0x00000000000364d8        0x4 build/cooja/mtype788.a(cooja_mtarch.o)
 .bss           0x00000000000364dc        0x0 build/cooja/mtype788.a(rtimer-arch.o)
 .bss           0x00000000000364dc        0x0 build/cooja/mtype788.a(beep.o)
 .bss           0x00000000000364dc        0x1 build/cooja/mtype788.a(leds-arch.o)
                0x00000000000364dc                simLedsValue
 .bss           0x00000000000364dd        0x0 build/cooja/mtype788.a(moteid.o)
 .bss           0x00000000000364dd        0x1 build/cooja/mtype788.a(pir-sensor.o)
                0x00000000000364dd                simPirValue
 *fill*         0x00000000000364de        0x2 
 .bss           0x00000000000364e0        0x4 build/cooja/mtype788.a(rs232.o)
 .bss           0x00000000000364e4        0x1 build/cooja/mtype788.a(vib-sensor.o)
                0x00000000000364e4                simVibValue
 .bss           0x00000000000364e5        0x0 build/cooja/mtype788.a(clock.o)
 *fill*         0x00000000000364e5       0x1b 
 .bss           0x0000000000036500     0x2020 build/cooja/mtype788.a(cooja-log.o)
 .bss           0x0000000000038520      0xfc0 build/cooja/mtype788.a(cfs-cooja.o)
                0x0000000000038520                simCFSData
                0x00000000000394c0                simCFSSize
                0x00000000000394c4                simCFSChanged
                0x00000000000394c8                simCFSRead
                0x00000000000394cc                simCFSWritten
 .bss           0x00000000000394e0       0x24 build/cooja/mtype788.a(cooja-radio.o)
                0x00000000000394e0                simReceiving
                0x00000000000394e4                simInSize
                0x00000000000394e8                simLastPacketTimestamp
                0x00000000000394f0                simOutSize
 .bss           0x0000000000039504        0xc build/cooja/mtype788.a(eeprom.o)
                0x0000000000039504                simEEPROMChanged
                0x0000000000039508                simEEPROMRead
                0x000000000003950c                simEEPROMWritten
 .bss           0x0000000000039510        0x0 build/cooja/mtype788.a(random.o)
 .bss           0x0000000000039510        0xc build/cooja/mtype788.a(sensors.o)
 .bss           0x000000000003951c        0x0 build/cooja/mtype788.a(leds.o)
 .bss           0x000000000003951c       0x24 build/cooja/mtype788.a(gpio-hal-arch.o)
 .bss           0x0000000000039540        0x0 build/cooja/mtype788.a(buttons.o)
 .bss           0x0000000000039540      0x190 build/cooja/mtype788.a(coap-engine.o)
 .bss           0x00000000000396d0        0x0 build/cooja/mtype788.a(coap-res-well-k)
 *fill*         0x00000000000396d0       0x10 
 .bss           0x00000000000396e0      0x120 build/cooja/mtype788.a(coap-observe.o)
 .bss           0x0000000000039800       0x18 build/cooja/mtype788.a(coap-uip.o)
 .bss           0x0000000000039818        0x5 build/cooja/mtype788.a(coap-timer.o)
 *fill*         0x000000000003981d        0x3 
 .bss           0x0000000000039820      0x334 build/cooja/mtype788.a(coap-transactio)
 .bss           0x0000000000039b54        0x6 build/cooja/mtype788.a(coap.o)
                0x0000000000039b54                coap_status_code
 .bss           0x0000000000039b5a        0x0 build/cooja/mtype788.a(contiki-main.o)
 .bss           0x0000000000039b5a        0x0 build/cooja/mtype788.a(autostart.o)
 *fill*         0x0000000000039b5a        0x2 
 .bss           0x0000000000039b5c        0x5 build/cooja/mtype788.a(ctimer.o)
 *fill*         0x0000000000039b61        0x3 
 .bss           0x0000000000039b64       0x2c build/cooja/mtype788.a(log.o)
                0x0000000000039b64                curr_log_level_rpl
                0x0000000000039b68                curr_log_level_tcpip
                0x0000000000039b6c                curr_log_level_ipv6
                0x0000000000039b70                curr_log_level_6lowpan
                0x0000000000039b74                curr_log_level_nullnet
                0x0000000000039b78                curr_log_level_mac
                0x0000000000039b7c                curr_log_level_framer
                0x0000000000039b80                curr_log_level_6top
                0x0000000000039b84                curr_log_level_coap
                0x0000000000039b88                curr_log_level_snmp
                0x0000000000039b8c                curr_log_level_lwm2m
 .bss           0x0000000000039b90        0x0 build/cooja/mtype788.a(energest.o)
 .bss           0x0000000000039b90        0x8 build/cooja/mtype788.a(etimer.o)
 .bss           0x0000000000039b98        0x2 build/cooja/mtype788.a(node-id.o)
                0x0000000000039b98                node_id
 *fill*         0x0000000000039b9a        0x2 
 .bss           0x0000000000039b9c        0x4 build/cooja/mtype788.a(rtimer.o)
 .bss           0x0000000000039ba0      0x1a1 build/cooja/mtype788.a(process.o)
                0x0000000000039ba0                process_list
                0x0000000000039ba4                process_current
 .bss           0x0000000000039d41        0x0 build/cooja/mtype788.a(timer.o)
 .bss           0x0000000000039d41        0x0 build/cooja/mtype788.a(list.o)
 .bss           0x0000000000039d41        0x0 build/cooja/mtype788.a(memb.o)
 *fill*         0x0000000000039d41        0x3 
 .bss           0x0000000000039d44       0x10 build/cooja/mtype788.a(button-hal.o)
 *fill*         0x0000000000039d54        0xc 
 .bss           0x0000000000039d60      0x140 build/cooja/mtype788.a(serial-line.o)
 .bss           0x0000000000039ea0        0x4 build/cooja/mtype788.a(gpio-hal.o)
 *fill*         0x0000000000039ea4       0x1c 
 .bss           0x0000000000039ec0     0x2c80 build/cooja/mtype788.a(queuebuf.o)
 .bss           0x000000000003cb40       0xa0 build/cooja/mtype788.a(packetbuf.o)
 .bss           0x000000000003cbe0        0x4 build/cooja/mtype788.a(netstack.o)
 .bss           0x000000000003cbe4        0x0 build/cooja/mtype788.a(linkaddr.o)
 .bss           0x000000000003cbe4        0x0 build/cooja/mtype788.a(csma.o)
 *fill*         0x000000000003cbe4       0x1c 
 .bss           0x000000000003cc00      0x726 build/cooja/mtype788.a(csma-output.o)
 *fill*         0x000000000003d326        0x2 
 .bss           0x000000000003d328       0x30 build/cooja/mtype788.a(uip-ds6.o)
 .bss           0x000000000003d358        0x0 build/cooja/mtype788.a(uip-udp-packet.)
 *fill*         0x000000000003d358        0x8 
 .bss           0x000000000003d360      0x2a4 build/cooja/mtype788.a(uip-ds6-route.o)
 .bss           0x000000000003d604       0x10 build/cooja/mtype788.a(tcpip.o)
 .bss           0x000000000003d614        0x8 build/cooja/mtype788.a(uip6.o)
                0x000000000003d614                uip_ext_bitmap
                0x000000000003d616                uip_ext_len
                0x000000000003d618                uip_last_proto
 *fill*         0x000000000003d61c        0x4 
 .bss           0x000000000003d620       0xf0 build/cooja/mtype788.a(uip-ds6-nbr.o)
 .bss           0x000000000003d710       0x10 build/cooja/mtype788.a(uip-nd6.o)
 .bss           0x000000000003d720      0x724 build/cooja/mtype788.a(sicslowpan.o)
 .bss           0x000000000003de44        0x0 build/cooja/mtype788.a(uiplib.o)
 .bss           0x000000000003de44        0x1 build/cooja/mtype788.a(rpl.o)
 .bss           0x000000000003de45        0x0 build/cooja/mtype788.a(rpl-icmp6.o)
 *fill*         0x000000000003de45        0x3 
 .bss           0x000000000003de48       0x11 build/cooja/mtype788.a(rpl-dag-root.o)
 .bss           0x000000000003de59        0x0 build/cooja/mtype788.a(watchdog.o)
 *fill*         0x000000000003de59        0x3 
 .bss           0x000000000003de5c        0x4 build/cooja/mtype788.a(int-master.o)
 .bss           0x000000000003de60       0x1c build/cooja/mtype788.a(coap-timer-defa)
 .bss           0x000000000003de7c        0x0 build/cooja/mtype788.a(stimer.o)
 .bss           0x000000000003de7c        0x0 build/cooja/mtype788.a(ringbuf.o)
 .bss           0x000000000003de7c        0x0 build/cooja/mtype788.a(assert.o)
 *fill*         0x000000000003de7c        0x4 
 .bss           0x000000000003de80       0xdc build/cooja/mtype788.a(nbr-table.o)
 *fill*         0x000000000003df5c        0x4 
 .bss           0x000000000003df60       0x78 build/cooja/mtype788.a(link-stats.o)
 *fill*         0x000000000003dfd8        0x8 
 .bss           0x000000000003dfe0      0x100 build/cooja/mtype788.a(mac-sequence.o)
 .bss           0x000000000003e0e0        0x0 build/cooja/mtype788.a(mac.o)
 .bss           0x000000000003e0e0        0x2 build/cooja/mtype788.a(framer-802154.o)
 .bss           0x000000000003e0e2        0x0 build/cooja/mtype788.a(frame802154.o)
 .bss           0x000000000003e0e2        0x0 build/cooja/mtype788.a(csma-security.o)
 *fill*         0x000000000003e0e2        0x2 
 .bss           0x000000000003e0e4       0x18 build/cooja/mtype788.a(uipbuf.o)
 .bss           0x000000000003e0fc       0x18 build/cooja/mtype788.a(uip-icmp6.o)
 *fill*         0x000000000003e114        0xc 
 .bss           0x000000000003e120     0x1d80 build/cooja/mtype788.a(uip-sr.o)
 .bss           0x000000000003fea0      0x258 build/cooja/mtype788.a(uip-packetqueue)
 .bss           0x00000000000400f8        0xe build/cooja/mtype788.a(rpl-nbr-policy.)
 *fill*         0x0000000000040106       0x1a 
 .bss           0x0000000000040120       0x50 build/cooja/mtype788.a(rpl-neighbor.o)
 .bss           0x0000000000040170        0x0 build/cooja/mtype788.a(rpl-dag.o)
 *fill*         0x0000000000040170       0x10 
 .bss           0x0000000000040180       0x40 build/cooja/mtype788.a(rpl-timers.o)
 .bss           0x00000000000401c0        0x0 build/cooja/mtype788.a(rpl-ext-header.)
 .bss           0x00000000000401c0        0x0 build/cooja/mtype788.a(rpl-mrhof.o)
 .bss           0x00000000000401c0        0x0 /usr/lib/gcc/i686-linux-gnu/5/libgcc.a(_udivdi3.o)
 .bss           0x00000000000401c0        0x0 /usr/lib/gcc/i686-linux-gnu/5/crtendS.o
 .bss           0x00000000000401c0        0x0 /usr/lib/gcc/i686-linux-gnu/5/../../../i386-linux-gnu/crtn.o
 *(COMMON)
 COMMON         0x00000000000401c0        0x8 build/cooja/mtype788.o
                0x00000000000401c0                referenceVar
                0x00000000000401c4                sensors_flags
 COMMON         0x00000000000401c8        0xc build/cooja/mtype788.a(simEnvChange.o)
                0x00000000000401c8                simEtimerPending
                0x00000000000401cc                simProcessRunValue
                0x00000000000401d0                simEtimerNextExpirationTime
 *fill*         0x00000000000401d4        0x4 
 COMMON         0x00000000000401d8       0x18 build/cooja/mtype788.a(rtimer-arch.o)
                0x00000000000401d8                simRtimerPending
                0x00000000000401e0                simRtimerCurrentTicks
                0x00000000000401e8                simRtimerNextExpirationTime
 COMMON         0x00000000000401f0        0x1 build/cooja/mtype788.a(beep.o)
                0x00000000000401f0                simBeeped
 *fill*         0x00000000000401f1        0x3 
 COMMON         0x00000000000401f4        0xc build/cooja/mtype788.a(moteid.o)
                0x00000000000401f4                simRandomSeed
                0x00000000000401f8                simMoteIDChanged
                0x00000000000401fc                simMoteID
 COMMON         0x0000000000040200        0x2 build/cooja/mtype788.a(pir-sensor.o)
                0x0000000000040200                simPirIsActive
                0x0000000000040201                simPirChanged
 *fill*         0x0000000000040202       0x1e 
 COMMON         0x0000000000040220      0x820 build/cooja/mtype788.a(rs232.o)
                0x0000000000040220                simSerialReceivingFlag
                0x0000000000040224                simSerialReceivingLength
                0x0000000000040240                simSerialReceivingData
 COMMON         0x0000000000040a40        0x2 build/cooja/mtype788.a(vib-sensor.o)
                0x0000000000040a40                simVibChanged
                0x0000000000040a41                simVibIsActive
 *fill*         0x0000000000040a42        0x2 
 COMMON         0x0000000000040a44        0x4 build/cooja/mtype788.a(clock.o)
                0x0000000000040a44                simCurrentTime
 *fill*         0x0000000000040a48       0x18 
 COMMON         0x0000000000040a60     0x2020 build/cooja/mtype788.a(cooja-log.o)
                0x0000000000040a60                simLoggedLength
                0x0000000000040a64                simLoggedFlag
                0x0000000000040a80                simLoggedData
 COMMON         0x0000000000042a80       0xfd build/cooja/mtype788.a(cooja-radio.o)
                0x0000000000042a80                simOutDataBuffer
                0x0000000000042b00                simInDataBuffer
 *fill*         0x0000000000042b7d        0x3 
 COMMON         0x0000000000042b80      0x400 build/cooja/mtype788.a(eeprom.o)
                0x0000000000042b80                simEEPROMData
 COMMON         0x0000000000042f80        0x1 build/cooja/mtype788.a(sensors.o)
                0x0000000000042f80                sensors_event
 COMMON         0x0000000000042f81        0x2 build/cooja/mtype788.a(buttons.o)
                0x0000000000042f81                simButtonIsDown
                0x0000000000042f82                simButtonChanged
 *fill*         0x0000000000042f83        0x1 
 COMMON         0x0000000000042f84       0x60 build/cooja/mtype788.a(contiki-main.o)
                0x0000000000042f84                eb_per_time_source
                0x0000000000042f9c                unicast_per_neighbor_rpl_storing
                0x0000000000042fb4                unicast_per_neighbor_rpl_ns
                0x0000000000042fcc                default_common
 COMMON         0x0000000000042fe4        0x3 build/cooja/mtype788.a(button-hal.o)
                0x0000000000042fe4                button_hal_periodic_event
                0x0000000000042fe5                button_hal_press_event
                0x0000000000042fe6                button_hal_release_event
 COMMON         0x0000000000042fe7        0x1 build/cooja/mtype788.a(serial-line.o)
                0x0000000000042fe7                serial_line_event_message
 COMMON         0x0000000000042fe8       0x2c build/cooja/mtype788.a(packetbuf.o)
                0x0000000000042fe8                packetbuf_attrs
                0x0000000000043004                packetbuf_addrs
 COMMON         0x0000000000043014        0x8 build/cooja/mtype788.a(linkaddr.o)
                0x0000000000043014                linkaddr_node_addr
 *fill*         0x000000000004301c        0x4 
 COMMON         0x0000000000043020      0x181 build/cooja/mtype788.a(uip-ds6.o)
                0x0000000000043020                uip_ds6_prefix_list
                0x0000000000043080                uip_ds6_timer_periodic
                0x0000000000043090                uip_ds6_netif_addr_list_offset
                0x00000000000430a0                uip_ds6_if
                0x0000000000043198                uip_ds6_timer_ra
                0x00000000000431a0                uip_ds6_addr_size
 COMMON         0x00000000000431a1        0x1 build/cooja/mtype788.a(tcpip.o)
                0x00000000000431a1                tcpip_event
 *fill*         0x00000000000431a2       0x1e 
 COMMON         0x00000000000431c0      0x228 build/cooja/mtype788.a(uip6.o)
                0x00000000000431c0                uip_slen
                0x00000000000431c4                uip_lladdr
                0x00000000000431cc                uip_appdata
                0x00000000000431d0                uip_flags
                0x00000000000431e0                uip_aligned_buf
                0x00000000000432d0                uip_len
                0x00000000000432d4                uip_sappdata
                0x00000000000432e0                uip_udp_conns
                0x00000000000433e0                uip_udp_conn
                0x00000000000433e4                uip_conn
 COMMON         0x00000000000433e8       0x10 build/cooja/mtype788.a(rpl.o)
                0x00000000000433e8                rpl_multicast_addr
 *fill*         0x00000000000433f8        0x8 
 COMMON         0x0000000000043400       0x20 build/cooja/mtype788.a(link-stats.o)
                0x0000000000043400                periodic_timer
 COMMON         0x0000000000043420      0x164 build/cooja/mtype788.a(rpl-dag.o)
                0x0000000000043420                curr_instance
                0x0000000000043584                . = ALIGN ((. != 0x0)?0x4:0x1)
                0x0000000000043584                . = ALIGN (0x4)
                0x0000000000043584                . = SEGMENT_START ("ldata-segment", .)
                0x0000000000043584                . = ALIGN (0x4)
                0x0000000000043584                _end = .
                [!provide]                        PROVIDE (end, .)
                0x0000000000043584                . = DATA_SEGMENT_END (.)

.stab
 *(.stab)

.stabstr
 *(.stabstr)

.stab.excl
 *(.stab.excl)

.stab.exclstr
 *(.stab.exclstr)

.stab.index
 *(.stab.index)

.stab.indexstr
 *(.stab.indexstr)

.comment        0x0000000000000000       0x35
 *(.comment)
 .comment       0x0000000000000000       0x35 /usr/lib/gcc/i686-linux-gnu/5/crtbeginS.o
                                         0x36 (size before relaxing)
 .comment       0x0000000000000035       0x36 coap-actuator-energy.o
 .comment       0x0000000000000035       0x36 build/cooja/mtype788.o
 .comment       0x0000000000000035       0x36 build/cooja/mtype788.a(simEnvChange.o)
 .comment       0x0000000000000035       0x36 build/cooja/mtype788.a(cooja_mt.o)
 .comment       0x0000000000000035       0x36 build/cooja/mtype788.a(cooja_mtarch.o)
 .comment       0x0000000000000035       0x36 build/cooja/mtype788.a(rtimer-arch.o)
 .comment       0x0000000000000035       0x36 build/cooja/mtype788.a(beep.o)
 .comment       0x0000000000000035       0x36 build/cooja/mtype788.a(leds-arch.o)
 .comment       0x0000000000000035       0x36 build/cooja/mtype788.a(moteid.o)
 .comment       0x0000000000000035       0x36 build/cooja/mtype788.a(pir-sensor.o)
 .comment       0x0000000000000035       0x36 build/cooja/mtype788.a(rs232.o)
 .comment       0x0000000000000035       0x36 build/cooja/mtype788.a(vib-sensor.o)
 .comment       0x0000000000000035       0x36 build/cooja/mtype788.a(clock.o)
 .comment       0x0000000000000035       0x36 build/cooja/mtype788.a(cooja-log.o)
 .comment       0x0000000000000035       0x36 build/cooja/mtype788.a(cfs-cooja.o)
 .comment       0x0000000000000035       0x36 build/cooja/mtype788.a(cooja-radio.o)
 .comment       0x0000000000000035       0x36 build/cooja/mtype788.a(eeprom.o)
 .comment       0x0000000000000035       0x36 build/cooja/mtype788.a(random.o)
 .comment       0x0000000000000035       0x36 build/cooja/mtype788.a(sensors.o)
 .comment       0x0000000000000035       0x36 build/cooja/mtype788.a(leds.o)
 .comment       0x0000000000000035       0x36 build/cooja/mtype788.a(gpio-hal-arch.o)
 .comment       0x0000000000000035       0x36 build/cooja/mtype788.a(buttons.o)
 .comment       0x0000000000000035       0x36 build/cooja/mtype788.a(coap-engine.o)
 .comment       0x0000000000000035       0x36 build/cooja/mtype788.a(coap-res-well-k)
 .comment       0x0000000000000035       0x36 build/cooja/mtype788.a(coap-observe.o)
 .comment       0x0000000000000035       0x36 build/cooja/mtype788.a(coap-uip.o)
 .comment       0x0000000000000035       0x36 build/cooja/mtype788.a(coap-timer.o)
 .comment       0x0000000000000035       0x36 build/cooja/mtype788.a(coap-transactio)
 .comment       0x0000000000000035       0x36 build/cooja/mtype788.a(coap.o)
 .comment       0x0000000000000035       0x36 build/cooja/mtype788.a(contiki-main.o)
 .comment       0x0000000000000035       0x36 build/cooja/mtype788.a(autostart.o)
 .comment       0x0000000000000035       0x36 build/cooja/mtype788.a(ctimer.o)
 .comment       0x0000000000000035       0x36 build/cooja/mtype788.a(log.o)
 .comment       0x0000000000000035       0x36 build/cooja/mtype788.a(energest.o)
 .comment       0x0000000000000035       0x36 build/cooja/mtype788.a(etimer.o)
 .comment       0x0000000000000035       0x36 build/cooja/mtype788.a(node-id.o)
 .comment       0x0000000000000035       0x36 build/cooja/mtype788.a(rtimer.o)
 .comment       0x0000000000000035       0x36 build/cooja/mtype788.a(process.o)
 .comment       0x0000000000000035       0x36 build/cooja/mtype788.a(timer.o)
 .comment       0x0000000000000035       0x36 build/cooja/mtype788.a(list.o)
 .comment       0x0000000000000035       0x36 build/cooja/mtype788.a(memb.o)
 .comment       0x0000000000000035       0x36 build/cooja/mtype788.a(button-hal.o)
 .comment       0x0000000000000035       0x36 build/cooja/mtype788.a(serial-line.o)
 .comment       0x0000000000000035       0x36 build/cooja/mtype788.a(gpio-hal.o)
 .comment       0x0000000000000035       0x36 build/cooja/mtype788.a(queuebuf.o)
 .comment       0x0000000000000035       0x36 build/cooja/mtype788.a(packetbuf.o)
 .comment       0x0000000000000035       0x36 build/cooja/mtype788.a(netstack.o)
 .comment       0x0000000000000035       0x36 build/cooja/mtype788.a(linkaddr.o)
 .comment       0x0000000000000035       0x36 build/cooja/mtype788.a(csma.o)
 .comment       0x0000000000000035       0x36 build/cooja/mtype788.a(csma-output.o)
 .comment       0x0000000000000035       0x36 build/cooja/mtype788.a(uip-ds6.o)
 .comment       0x0000000000000035       0x36 build/cooja/mtype788.a(uip-udp-packet.)
 .comment       0x0000000000000035       0x36 build/cooja/mtype788.a(uip-ds6-route.o)
 .comment       0x0000000000000035       0x36 build/cooja/mtype788.a(tcpip.o)
 .comment       0x0000000000000035       0x36 build/cooja/mtype788.a(uip6.o)
 .comment       0x0000000000000035       0x36 build/cooja/mtype788.a(uip-ds6-nbr.o)
 .comment       0x0000000000000035       0x36 build/cooja/mtype788.a(uip-nd6.o)
 .comment       0x0000000000000035       0x36 build/cooja/mtype788.a(sicslowpan.o)
 .comment       0x0000000000000035       0x36 build/cooja/mtype788.a(uiplib.o)
 .comment       0x0000000000000035       0x36 build/cooja/mtype788.a(rpl.o)
 .comment       0x0000000000000035       0x36 build/cooja/mtype788.a(rpl-icmp6.o)
 .comment       0x0000000000000035       0x36 build/cooja/mtype788.a(rpl-dag-root.o)
 .comment       0x0000000000000035       0x36 build/cooja/mtype788.a(watchdog.o)
 .comment       0x0000000000000035       0x36 build/cooja/mtype788.a(int-master.o)
 .comment       0x0000000000000035       0x36 build/cooja/mtype788.a(coap-timer-defa)
 .comment       0x0000000000000035       0x36 build/cooja/mtype788.a(stimer.o)
 .comment       0x0000000000000035       0x36 build/cooja/mtype788.a(ringbuf.o)
 .comment       0x0000000000000035       0x36 build/cooja/mtype788.a(assert.o)
 .comment       0x0000000000000035       0x36 build/cooja/mtype788.a(nbr-table.o)
 .comment       0x0000000000000035       0x36 build/cooja/mtype788.a(link-stats.o)
 .comment       0x0000000000000035       0x36 build/cooja/mtype788.a(mac-sequence.o)
 .comment       0x0000000000000035       0x36 build/cooja/mtype788.a(mac.o)
 .comment       0x0000000000000035       0x36 build/cooja/mtype788.a(framer-802154.o)
 .comment       0x0000000000000035       0x36 build/cooja/mtype788.a(frame802154.o)
 .comment       0x0000000000000035       0x36 build/cooja/mtype788.a(csma-security.o)
 .comment       0x0000000000000035       0x36 build/cooja/mtype788.a(uipbuf.o)
 .comment       0x0000000000000035       0x36 build/cooja/mtype788.a(uip-icmp6.o)
 .comment       0x0000000000000035       0x36 build/cooja/mtype788.a(uip-sr.o)
 .comment       0x0000000000000035       0x36 build/cooja/mtype788.a(uip-packetqueue)
 .comment       0x0000000000000035       0x36 build/cooja/mtype788.a(rpl-nbr-policy.)
 .comment       0x0000000000000035       0x36 build/cooja/mtype788.a(rpl-neighbor.o)
 .comment       0x0000000000000035       0x36 build/cooja/mtype788.a(rpl-dag.o)
 .comment       0x0000000000000035       0x36 build/cooja/mtype788.a(rpl-timers.o)
 .comment       0x0000000000000035       0x36 build/cooja/mtype788.a(rpl-ext-header.)
 .comment       0x0000000000000035       0x36 build/cooja/mtype788.a(rpl-mrhof.o)
 .comment       0x0000000000000035       0x36 /usr/lib/gcc/i686-linux-gnu/5/crtendS.o

.debug
 *(.debug)

.line
 *(.line)

.debug_srcinfo
 *(.debug_srcinfo)

.debug_sfnames
 *(.debug_sfnames)

.debug_aranges  0x0000000000000000      0xaa0
 *(.debug_aranges)
 .debug_aranges
                0x0000000000000000       0x20 coap-actuator-energy.o
 .debug_aranges
                0x0000000000000020       0x20 build/cooja/mtype788.o
 .debug_aranges
                0x0000000000000040       0x20 build/cooja/mtype788.a(simEnvChange.o)
 .debug_aranges
                0x0000000000000060       0x20 build/cooja/mtype788.a(cooja_mt.o)
 .debug_aranges
                0x0000000000000080       0x20 build/cooja/mtype788.a(cooja_mtarch.o)
 .debug_aranges
                0x00000000000000a0       0x20 build/cooja/mtype788.a(rtimer-arch.o)
 .debug_aranges
                0x00000000000000c0       0x20 build/cooja/mtype788.a(beep.o)
 .debug_aranges
                0x00000000000000e0       0x20 build/cooja/mtype788.a(leds-arch.o)
 .debug_aranges
                0x0000000000000100       0x20 build/cooja/mtype788.a(moteid.o)
 .debug_aranges
                0x0000000000000120       0x20 build/cooja/mtype788.a(pir-sensor.o)
 .debug_aranges
                0x0000000000000140       0x20 build/cooja/mtype788.a(rs232.o)
 .debug_aranges
                0x0000000000000160       0x20 build/cooja/mtype788.a(vib-sensor.o)
 .debug_aranges
                0x0000000000000180       0x20 build/cooja/mtype788.a(clock.o)
 .debug_aranges
                0x00000000000001a0       0x20 build/cooja/mtype788.a(cooja-log.o)
 .debug_aranges
                0x00000000000001c0       0x20 build/cooja/mtype788.a(cfs-cooja.o)
 .debug_aranges
                0x00000000000001e0       0x20 build/cooja/mtype788.a(cooja-radio.o)
 .debug_aranges
                0x0000000000000200       0x20 build/cooja/mtype788.a(eeprom.o)
 .debug_aranges
                0x0000000000000220       0x20 build/cooja/mtype788.a(random.o)
 .debug_aranges
                0x0000000000000240       0x20 build/cooja/mtype788.a(sensors.o)
 .debug_aranges
                0x0000000000000260       0x20 build/cooja/mtype788.a(leds.o)
 .debug_aranges
                0x0000000000000280       0x20 build/cooja/mtype788.a(gpio-hal-arch.o)
 .debug_aranges
                0x00000000000002a0       0x20 build/cooja/mtype788.a(buttons.o)
 .debug_aranges
                0x00000000000002c0       0x20 build/cooja/mtype788.a(coap-engine.o)
 .debug_aranges
                0x00000000000002e0       0x20 build/cooja/mtype788.a(coap-res-well-k)
 .debug_aranges
                0x0000000000000300       0x20 build/cooja/mtype788.a(coap-observe.o)
 .debug_aranges
                0x0000000000000320       0x20 build/cooja/mtype788.a(coap-uip.o)
 .debug_aranges
                0x0000000000000340       0x20 build/cooja/mtype788.a(coap-timer.o)
 .debug_aranges
                0x0000000000000360       0x20 build/cooja/mtype788.a(coap-transactio)
 .debug_aranges
                0x0000000000000380       0x20 build/cooja/mtype788.a(coap.o)
 .debug_aranges
                0x00000000000003a0       0x20 build/cooja/mtype788.a(contiki-main.o)
 .debug_aranges
                0x00000000000003c0       0x20 build/cooja/mtype788.a(autostart.o)
 .debug_aranges
                0x00000000000003e0       0x20 build/cooja/mtype788.a(ctimer.o)
 .debug_aranges
                0x0000000000000400       0x20 build/cooja/mtype788.a(log.o)
 .debug_aranges
                0x0000000000000420       0x20 build/cooja/mtype788.a(energest.o)
 .debug_aranges
                0x0000000000000440       0x20 build/cooja/mtype788.a(etimer.o)
 .debug_aranges
                0x0000000000000460       0x20 build/cooja/mtype788.a(node-id.o)
 .debug_aranges
                0x0000000000000480       0x20 build/cooja/mtype788.a(rtimer.o)
 .debug_aranges
                0x00000000000004a0       0x20 build/cooja/mtype788.a(process.o)
 .debug_aranges
                0x00000000000004c0       0x20 build/cooja/mtype788.a(timer.o)
 .debug_aranges
                0x00000000000004e0       0x20 build/cooja/mtype788.a(list.o)
 .debug_aranges
                0x0000000000000500       0x20 build/cooja/mtype788.a(memb.o)
 .debug_aranges
                0x0000000000000520       0x20 build/cooja/mtype788.a(button-hal.o)
 .debug_aranges
                0x0000000000000540       0x20 build/cooja/mtype788.a(serial-line.o)
 .debug_aranges
                0x0000000000000560       0x20 build/cooja/mtype788.a(gpio-hal.o)
 .debug_aranges
                0x0000000000000580       0x20 build/cooja/mtype788.a(queuebuf.o)
 .debug_aranges
                0x00000000000005a0       0x20 build/cooja/mtype788.a(packetbuf.o)
 .debug_aranges
                0x00000000000005c0       0x20 build/cooja/mtype788.a(netstack.o)
 .debug_aranges
                0x00000000000005e0       0x20 build/cooja/mtype788.a(linkaddr.o)
 .debug_aranges
                0x0000000000000600       0x20 build/cooja/mtype788.a(csma.o)
 .debug_aranges
                0x0000000000000620       0x20 build/cooja/mtype788.a(csma-output.o)
 .debug_aranges
                0x0000000000000640       0x20 build/cooja/mtype788.a(uip-ds6.o)
 .debug_aranges
                0x0000000000000660       0x20 build/cooja/mtype788.a(uip-udp-packet.)
 .debug_aranges
                0x0000000000000680       0x20 build/cooja/mtype788.a(uip-ds6-route.o)
 .debug_aranges
                0x00000000000006a0       0x20 build/cooja/mtype788.a(tcpip.o)
 .debug_aranges
                0x00000000000006c0       0x20 build/cooja/mtype788.a(uip6.o)
 .debug_aranges
                0x00000000000006e0       0x20 build/cooja/mtype788.a(uip-ds6-nbr.o)
 .debug_aranges
                0x0000000000000700       0x20 build/cooja/mtype788.a(uip-nd6.o)
 .debug_aranges
                0x0000000000000720       0x20 build/cooja/mtype788.a(sicslowpan.o)
 .debug_aranges
                0x0000000000000740       0x20 build/cooja/mtype788.a(uiplib.o)
 .debug_aranges
                0x0000000000000760       0x20 build/cooja/mtype788.a(rpl.o)
 .debug_aranges
                0x0000000000000780       0x20 build/cooja/mtype788.a(rpl-icmp6.o)
 .debug_aranges
                0x00000000000007a0       0x20 build/cooja/mtype788.a(rpl-dag-root.o)
 .debug_aranges
                0x00000000000007c0       0x20 build/cooja/mtype788.a(watchdog.o)
 .debug_aranges
                0x00000000000007e0       0x20 build/cooja/mtype788.a(int-master.o)
 .debug_aranges
                0x0000000000000800       0x20 build/cooja/mtype788.a(coap-timer-defa)
 .debug_aranges
                0x0000000000000820       0x20 build/cooja/mtype788.a(stimer.o)
 .debug_aranges
                0x0000000000000840       0x20 build/cooja/mtype788.a(ringbuf.o)
 .debug_aranges
                0x0000000000000860       0x20 build/cooja/mtype788.a(assert.o)
 .debug_aranges
                0x0000000000000880       0x20 build/cooja/mtype788.a(nbr-table.o)
 .debug_aranges
                0x00000000000008a0       0x20 build/cooja/mtype788.a(link-stats.o)
 .debug_aranges
                0x00000000000008c0       0x20 build/cooja/mtype788.a(mac-sequence.o)
 .debug_aranges
                0x00000000000008e0       0x20 build/cooja/mtype788.a(mac.o)
 .debug_aranges
                0x0000000000000900       0x20 build/cooja/mtype788.a(framer-802154.o)
 .debug_aranges
                0x0000000000000920       0x20 build/cooja/mtype788.a(frame802154.o)
 .debug_aranges
                0x0000000000000940       0x20 build/cooja/mtype788.a(csma-security.o)
 .debug_aranges
                0x0000000000000960       0x20 build/cooja/mtype788.a(uipbuf.o)
 .debug_aranges
                0x0000000000000980       0x20 build/cooja/mtype788.a(uip-icmp6.o)
 .debug_aranges
                0x00000000000009a0       0x20 build/cooja/mtype788.a(uip-sr.o)
 .debug_aranges
                0x00000000000009c0       0x20 build/cooja/mtype788.a(uip-packetqueue)
 .debug_aranges
                0x00000000000009e0       0x20 build/cooja/mtype788.a(rpl-nbr-policy.)
 .debug_aranges
                0x0000000000000a00       0x20 build/cooja/mtype788.a(rpl-neighbor.o)
 .debug_aranges
                0x0000000000000a20       0x20 build/cooja/mtype788.a(rpl-dag.o)
 .debug_aranges
                0x0000000000000a40       0x20 build/cooja/mtype788.a(rpl-timers.o)
 .debug_aranges
                0x0000000000000a60       0x20 build/cooja/mtype788.a(rpl-ext-header.)
 .debug_aranges
                0x0000000000000a80       0x20 build/cooja/mtype788.a(rpl-mrhof.o)

.debug_pubnames
 *(.debug_pubnames)

.debug_info     0x0000000000000000    0x25940
 *(.debug_info .gnu.linkonce.wi.*)
 .debug_info    0x0000000000000000      0x80e coap-actuator-energy.o
 .debug_info    0x000000000000080e     0x325a build/cooja/mtype788.o
 .debug_info    0x0000000000003a68      0x15a build/cooja/mtype788.a(simEnvChange.o)
 .debug_info    0x0000000000003bc2      0x1af build/cooja/mtype788.a(cooja_mt.o)
 .debug_info    0x0000000000003d71      0x212 build/cooja/mtype788.a(cooja_mtarch.o)
 .debug_info    0x0000000000003f83      0x181 build/cooja/mtype788.a(rtimer-arch.o)
 .debug_info    0x0000000000004104      0x1fa build/cooja/mtype788.a(beep.o)
 .debug_info    0x00000000000042fe      0x194 build/cooja/mtype788.a(leds-arch.o)
 .debug_info    0x0000000000004492      0x111 build/cooja/mtype788.a(moteid.o)
 .debug_info    0x00000000000045a3      0x21d build/cooja/mtype788.a(pir-sensor.o)
 .debug_info    0x00000000000047c0      0x21e build/cooja/mtype788.a(rs232.o)
 .debug_info    0x00000000000049de      0x21d build/cooja/mtype788.a(vib-sensor.o)
 .debug_info    0x0000000000004bfb      0x159 build/cooja/mtype788.a(clock.o)
 .debug_info    0x0000000000004d54      0x2bb build/cooja/mtype788.a(cooja-log.o)
 .debug_info    0x000000000000500f      0x3cf build/cooja/mtype788.a(cfs-cooja.o)
 .debug_info    0x00000000000053de      0xb0a build/cooja/mtype788.a(cooja-radio.o)
 .debug_info    0x0000000000005ee8      0x1d5 build/cooja/mtype788.a(eeprom.o)
 .debug_info    0x00000000000060bd       0xb3 build/cooja/mtype788.a(random.o)
 .debug_info    0x0000000000006170      0x36d build/cooja/mtype788.a(sensors.o)
 .debug_info    0x00000000000064dd      0x28a build/cooja/mtype788.a(leds.o)
 .debug_info    0x0000000000006767      0x40e build/cooja/mtype788.a(gpio-hal-arch.o)
 .debug_info    0x0000000000006b75      0x4bc build/cooja/mtype788.a(buttons.o)
 .debug_info    0x0000000000007031      0xe93 build/cooja/mtype788.a(coap-engine.o)
 .debug_info    0x0000000000007ec4      0x8a4 build/cooja/mtype788.a(coap-res-well-k)
 .debug_info    0x0000000000008768      0xdd0 build/cooja/mtype788.a(coap-observe.o)
 .debug_info    0x0000000000009538      0xe43 build/cooja/mtype788.a(coap-uip.o)
 .debug_info    0x000000000000a37b      0x2f1 build/cooja/mtype788.a(coap-timer.o)
 .debug_info    0x000000000000a66c      0x862 build/cooja/mtype788.a(coap-transactio)
 .debug_info    0x000000000000aece     0x14c2 build/cooja/mtype788.a(coap.o)
 .debug_info    0x000000000000c390      0xf4f build/cooja/mtype788.a(contiki-main.o)
 .debug_info    0x000000000000d2df      0x1ac build/cooja/mtype788.a(autostart.o)
 .debug_info    0x000000000000d48b      0x473 build/cooja/mtype788.a(ctimer.o)
 .debug_info    0x000000000000d8fe      0x483 build/cooja/mtype788.a(log.o)
 .debug_info    0x000000000000dd81       0xbc build/cooja/mtype788.a(energest.o)
 .debug_info    0x000000000000de3d      0x49f build/cooja/mtype788.a(etimer.o)
 .debug_info    0x000000000000e2dc       0xfb build/cooja/mtype788.a(node-id.o)
 .debug_info    0x000000000000e3d7      0x1c1 build/cooja/mtype788.a(rtimer.o)
 .debug_info    0x000000000000e598      0x4ab build/cooja/mtype788.a(process.o)
 .debug_info    0x000000000000ea43      0x17a build/cooja/mtype788.a(timer.o)
 .debug_info    0x000000000000ebbd      0x38b build/cooja/mtype788.a(list.o)
 .debug_info    0x000000000000ef48      0x1e4 build/cooja/mtype788.a(memb.o)
 .debug_info    0x000000000000f12c      0x60c build/cooja/mtype788.a(button-hal.o)
 .debug_info    0x000000000000f738      0x2de build/cooja/mtype788.a(serial-line.o)
 .debug_info    0x000000000000fa16      0x25d build/cooja/mtype788.a(gpio-hal.o)
 .debug_info    0x000000000000fc73      0x570 build/cooja/mtype788.a(queuebuf.o)
 .debug_info    0x00000000000101e3      0x553 build/cooja/mtype788.a(packetbuf.o)
 .debug_info    0x0000000000010736      0x56a build/cooja/mtype788.a(netstack.o)
 .debug_info    0x0000000000010ca0      0x18b build/cooja/mtype788.a(linkaddr.o)
 .debug_info    0x0000000000010e2b      0x68e build/cooja/mtype788.a(csma.o)
 .debug_info    0x00000000000114b9      0xc80 build/cooja/mtype788.a(csma-output.o)
 .debug_info    0x0000000000012139      0xae8 build/cooja/mtype788.a(uip-ds6.o)
 .debug_info    0x0000000000012c21      0x377 build/cooja/mtype788.a(uip-udp-packet.)
 .debug_info    0x0000000000012f98      0xdb7 build/cooja/mtype788.a(uip-ds6-route.o)
 .debug_info    0x0000000000013d4f      0xf38 build/cooja/mtype788.a(tcpip.o)
 .debug_info    0x0000000000014c87     0x1167 build/cooja/mtype788.a(uip6.o)
 .debug_info    0x0000000000015dee      0xb93 build/cooja/mtype788.a(uip-ds6-nbr.o)
 .debug_info    0x0000000000016981      0x7f6 build/cooja/mtype788.a(uip-nd6.o)
 .debug_info    0x0000000000017177     0x171e build/cooja/mtype788.a(sicslowpan.o)
 .debug_info    0x0000000000018895      0x30b build/cooja/mtype788.a(uiplib.o)
 .debug_info    0x0000000000018ba0     0x10b8 build/cooja/mtype788.a(rpl.o)
 .debug_info    0x0000000000019c58     0x1060 build/cooja/mtype788.a(rpl-icmp6.o)
 .debug_info    0x000000000001acb8      0xb33 build/cooja/mtype788.a(rpl-dag-root.o)
 .debug_info    0x000000000001b7eb       0xda build/cooja/mtype788.a(watchdog.o)
 .debug_info    0x000000000001b8c5      0x119 build/cooja/mtype788.a(int-master.o)
 .debug_info    0x000000000001b9de      0x330 build/cooja/mtype788.a(coap-timer-defa)
 .debug_info    0x000000000001bd0e      0x187 build/cooja/mtype788.a(stimer.o)
 .debug_info    0x000000000001be95      0x1b8 build/cooja/mtype788.a(ringbuf.o)
 .debug_info    0x000000000001c04d       0xb3 build/cooja/mtype788.a(assert.o)
 .debug_info    0x000000000001c100      0x957 build/cooja/mtype788.a(nbr-table.o)
 .debug_info    0x000000000001ca57      0x67b build/cooja/mtype788.a(link-stats.o)
 .debug_info    0x000000000001d0d2      0x213 build/cooja/mtype788.a(mac-sequence.o)
 .debug_info    0x000000000001d2e5       0xf3 build/cooja/mtype788.a(mac.o)
 .debug_info    0x000000000001d3d8      0x512 build/cooja/mtype788.a(framer-802154.o)
 .debug_info    0x000000000001d8ea      0x738 build/cooja/mtype788.a(frame802154.o)
 .debug_info    0x000000000001e022      0x166 build/cooja/mtype788.a(csma-security.o)
 .debug_info    0x000000000001e188      0x575 build/cooja/mtype788.a(uipbuf.o)
 .debug_info    0x000000000001e6fd      0xd45 build/cooja/mtype788.a(uip-icmp6.o)
 .debug_info    0x000000000001f442      0xb2e build/cooja/mtype788.a(uip-sr.o)
 .debug_info    0x000000000001ff70      0x474 build/cooja/mtype788.a(uip-packetqueue)
 .debug_info    0x00000000000203e4      0xc09 build/cooja/mtype788.a(rpl-nbr-policy.)
 .debug_info    0x0000000000020fed      0xe65 build/cooja/mtype788.a(rpl-neighbor.o)
 .debug_info    0x0000000000021e52      0xfe3 build/cooja/mtype788.a(rpl-dag.o)
 .debug_info    0x0000000000022e35      0xcbb build/cooja/mtype788.a(rpl-timers.o)
 .debug_info    0x0000000000023af0     0x1491 build/cooja/mtype788.a(rpl-ext-header.)
 .debug_info    0x0000000000024f81      0x9bf build/cooja/mtype788.a(rpl-mrhof.o)

.debug_abbrev   0x0000000000000000     0x8c8c
 *(.debug_abbrev)
 .debug_abbrev  0x0000000000000000      0x1ca coap-actuator-energy.o
 .debug_abbrev  0x00000000000001ca      0x27e build/cooja/mtype788.o
 .debug_abbrev  0x0000000000000448       0xc3 build/cooja/mtype788.a(simEnvChange.o)
 .debug_abbrev  0x000000000000050b       0xe6 build/cooja/mtype788.a(cooja_mt.o)
 .debug_abbrev  0x00000000000005f1      0x11e build/cooja/mtype788.a(cooja_mtarch.o)
 .debug_abbrev  0x000000000000070f       0xeb build/cooja/mtype788.a(rtimer-arch.o)
 .debug_abbrev  0x00000000000007fa       0xe3 build/cooja/mtype788.a(beep.o)
 .debug_abbrev  0x00000000000008dd       0xe0 build/cooja/mtype788.a(leds-arch.o)
 .debug_abbrev  0x00000000000009bd       0x9c build/cooja/mtype788.a(moteid.o)
 .debug_abbrev  0x0000000000000a59       0xe6 build/cooja/mtype788.a(pir-sensor.o)
 .debug_abbrev  0x0000000000000b3f      0x14a build/cooja/mtype788.a(rs232.o)
 .debug_abbrev  0x0000000000000c89       0xe6 build/cooja/mtype788.a(vib-sensor.o)
 .debug_abbrev  0x0000000000000d6f       0xee build/cooja/mtype788.a(clock.o)
 .debug_abbrev  0x0000000000000e5d      0x141 build/cooja/mtype788.a(cooja-log.o)
 .debug_abbrev  0x0000000000000f9e      0x139 build/cooja/mtype788.a(cfs-cooja.o)
 .debug_abbrev  0x00000000000010d7      0x2ef build/cooja/mtype788.a(cooja-radio.o)
 .debug_abbrev  0x00000000000013c6       0xf5 build/cooja/mtype788.a(eeprom.o)
 .debug_abbrev  0x00000000000014bb       0x6d build/cooja/mtype788.a(random.o)
 .debug_abbrev  0x0000000000001528      0x1c2 build/cooja/mtype788.a(sensors.o)
 .debug_abbrev  0x00000000000016ea       0xfc build/cooja/mtype788.a(leds.o)
 .debug_abbrev  0x00000000000017e6      0x115 build/cooja/mtype788.a(gpio-hal-arch.o)
 .debug_abbrev  0x00000000000018fb      0x16f build/cooja/mtype788.a(buttons.o)
 .debug_abbrev  0x0000000000001a6a      0x2d5 build/cooja/mtype788.a(coap-engine.o)
 .debug_abbrev  0x0000000000001d3f      0x169 build/cooja/mtype788.a(coap-res-well-k)
 .debug_abbrev  0x0000000000001ea8      0x234 build/cooja/mtype788.a(coap-observe.o)
 .debug_abbrev  0x00000000000020dc      0x36f build/cooja/mtype788.a(coap-uip.o)
 .debug_abbrev  0x000000000000244b      0x155 build/cooja/mtype788.a(coap-timer.o)
 .debug_abbrev  0x00000000000025a0      0x1c4 build/cooja/mtype788.a(coap-transactio)
 .debug_abbrev  0x0000000000002764      0x23c build/cooja/mtype788.a(coap.o)
 .debug_abbrev  0x00000000000029a0      0x1e6 build/cooja/mtype788.a(contiki-main.o)
 .debug_abbrev  0x0000000000002b86       0xfb build/cooja/mtype788.a(autostart.o)
 .debug_abbrev  0x0000000000002c81      0x1a1 build/cooja/mtype788.a(ctimer.o)
 .debug_abbrev  0x0000000000002e22      0x159 build/cooja/mtype788.a(log.o)
 .debug_abbrev  0x0000000000002f7b       0x69 build/cooja/mtype788.a(energest.o)
 .debug_abbrev  0x0000000000002fe4      0x1f8 build/cooja/mtype788.a(etimer.o)
 .debug_abbrev  0x00000000000031dc       0x9d build/cooja/mtype788.a(node-id.o)
 .debug_abbrev  0x0000000000003279      0x126 build/cooja/mtype788.a(rtimer.o)
 .debug_abbrev  0x000000000000339f      0x244 build/cooja/mtype788.a(process.o)
 .debug_abbrev  0x00000000000035e3       0xdb build/cooja/mtype788.a(timer.o)
 .debug_abbrev  0x00000000000036be      0x136 build/cooja/mtype788.a(list.o)
 .debug_abbrev  0x00000000000037f4       0xe4 build/cooja/mtype788.a(memb.o)
 .debug_abbrev  0x00000000000038d8      0x1ea build/cooja/mtype788.a(button-hal.o)
 .debug_abbrev  0x0000000000003ac2      0x190 build/cooja/mtype788.a(serial-line.o)
 .debug_abbrev  0x0000000000003c52       0xd4 build/cooja/mtype788.a(gpio-hal.o)
 .debug_abbrev  0x0000000000003d26      0x1a6 build/cooja/mtype788.a(queuebuf.o)
 .debug_abbrev  0x0000000000003ecc      0x1da build/cooja/mtype788.a(packetbuf.o)
 .debug_abbrev  0x00000000000040a6      0x1d5 build/cooja/mtype788.a(netstack.o)
 .debug_abbrev  0x000000000000427b       0xf2 build/cooja/mtype788.a(linkaddr.o)
 .debug_abbrev  0x000000000000436d      0x1ff build/cooja/mtype788.a(csma.o)
 .debug_abbrev  0x000000000000456c      0x269 build/cooja/mtype788.a(csma-output.o)
 .debug_abbrev  0x00000000000047d5      0x272 build/cooja/mtype788.a(uip-ds6.o)
 .debug_abbrev  0x0000000000004a47      0x18c build/cooja/mtype788.a(uip-udp-packet.)
 .debug_abbrev  0x0000000000004bd3      0x321 build/cooja/mtype788.a(uip-ds6-route.o)
 .debug_abbrev  0x0000000000004ef4      0x39e build/cooja/mtype788.a(tcpip.o)
 .debug_abbrev  0x0000000000005292      0x2c3 build/cooja/mtype788.a(uip6.o)
 .debug_abbrev  0x0000000000005555      0x28c build/cooja/mtype788.a(uip-ds6-nbr.o)
 .debug_abbrev  0x00000000000057e1      0x229 build/cooja/mtype788.a(uip-nd6.o)
 .debug_abbrev  0x0000000000005a0a      0x2d9 build/cooja/mtype788.a(sicslowpan.o)
 .debug_abbrev  0x0000000000005ce3      0x11d build/cooja/mtype788.a(uiplib.o)
 .debug_abbrev  0x0000000000005e00      0x2c9 build/cooja/mtype788.a(rpl.o)
 .debug_abbrev  0x00000000000060c9      0x2fa build/cooja/mtype788.a(rpl-icmp6.o)
 .debug_abbrev  0x00000000000063c3      0x21b build/cooja/mtype788.a(rpl-dag-root.o)
 .debug_abbrev  0x00000000000065de       0x6b build/cooja/mtype788.a(watchdog.o)
 .debug_abbrev  0x0000000000006649       0xcc build/cooja/mtype788.a(int-master.o)
 .debug_abbrev  0x0000000000006715      0x184 build/cooja/mtype788.a(coap-timer-defa)
 .debug_abbrev  0x0000000000006899       0xbf build/cooja/mtype788.a(stimer.o)
 .debug_abbrev  0x0000000000006958       0xdb build/cooja/mtype788.a(ringbuf.o)
 .debug_abbrev  0x0000000000006a33       0x61 build/cooja/mtype788.a(assert.o)
 .debug_abbrev  0x0000000000006a94      0x1f8 build/cooja/mtype788.a(nbr-table.o)
 .debug_abbrev  0x0000000000006c8c      0x222 build/cooja/mtype788.a(link-stats.o)
 .debug_abbrev  0x0000000000006eae       0xed build/cooja/mtype788.a(mac-sequence.o)
 .debug_abbrev  0x0000000000006f9b       0x8d build/cooja/mtype788.a(mac.o)
 .debug_abbrev  0x0000000000007028      0x16c build/cooja/mtype788.a(framer-802154.o)
 .debug_abbrev  0x0000000000007194      0x215 build/cooja/mtype788.a(frame802154.o)
 .debug_abbrev  0x00000000000073a9       0xa4 build/cooja/mtype788.a(csma-security.o)
 .debug_abbrev  0x000000000000744d      0x173 build/cooja/mtype788.a(uipbuf.o)
 .debug_abbrev  0x00000000000075c0      0x291 build/cooja/mtype788.a(uip-icmp6.o)
 .debug_abbrev  0x0000000000007851      0x24e build/cooja/mtype788.a(uip-sr.o)
 .debug_abbrev  0x0000000000007a9f      0x1cb build/cooja/mtype788.a(uip-packetqueue)
 .debug_abbrev  0x0000000000007c6a      0x256 build/cooja/mtype788.a(rpl-nbr-policy.)
 .debug_abbrev  0x0000000000007ec0      0x314 build/cooja/mtype788.a(rpl-neighbor.o)
 .debug_abbrev  0x00000000000081d4      0x34c build/cooja/mtype788.a(rpl-dag.o)
 .debug_abbrev  0x0000000000008520      0x297 build/cooja/mtype788.a(rpl-timers.o)
 .debug_abbrev  0x00000000000087b7      0x2f0 build/cooja/mtype788.a(rpl-ext-header.)
 .debug_abbrev  0x0000000000008aa7      0x1e5 build/cooja/mtype788.a(rpl-mrhof.o)

.debug_line     0x0000000000000000     0x9c41
 *(.debug_line .debug_line.* .debug_line_end)
 .debug_line    0x0000000000000000      0x189 coap-actuator-energy.o
 .debug_line    0x0000000000000189      0x308 build/cooja/mtype788.o
 .debug_line    0x0000000000000491       0xec build/cooja/mtype788.a(simEnvChange.o)
 .debug_line    0x000000000000057d       0xcb build/cooja/mtype788.a(cooja_mt.o)
 .debug_line    0x0000000000000648       0xc5 build/cooja/mtype788.a(cooja_mtarch.o)
 .debug_line    0x000000000000070d       0xd7 build/cooja/mtype788.a(rtimer-arch.o)
 .debug_line    0x00000000000007e4       0xdb build/cooja/mtype788.a(beep.o)
 .debug_line    0x00000000000008bf       0xe1 build/cooja/mtype788.a(leds-arch.o)
 .debug_line    0x00000000000009a0       0x95 build/cooja/mtype788.a(moteid.o)
 .debug_line    0x0000000000000a35       0xce build/cooja/mtype788.a(pir-sensor.o)
 .debug_line    0x0000000000000b03       0xd6 build/cooja/mtype788.a(rs232.o)
 .debug_line    0x0000000000000bd9       0xce build/cooja/mtype788.a(vib-sensor.o)
 .debug_line    0x0000000000000ca7       0xcc build/cooja/mtype788.a(clock.o)
 .debug_line    0x0000000000000d73      0x125 build/cooja/mtype788.a(cooja-log.o)
 .debug_line    0x0000000000000e98      0x11b build/cooja/mtype788.a(cfs-cooja.o)
 .debug_line    0x0000000000000fb3      0x298 build/cooja/mtype788.a(cooja-radio.o)
 .debug_line    0x000000000000124b       0xcd build/cooja/mtype788.a(eeprom.o)
 .debug_line    0x0000000000001318       0x4d build/cooja/mtype788.a(random.o)
 .debug_line    0x0000000000001365      0x120 build/cooja/mtype788.a(sensors.o)
 .debug_line    0x0000000000001485      0x125 build/cooja/mtype788.a(leds.o)
 .debug_line    0x00000000000015aa      0x160 build/cooja/mtype788.a(gpio-hal-arch.o)
 .debug_line    0x000000000000170a      0x191 build/cooja/mtype788.a(buttons.o)
 .debug_line    0x000000000000189b      0x34b build/cooja/mtype788.a(coap-engine.o)
 .debug_line    0x0000000000001be6      0x20b build/cooja/mtype788.a(coap-res-well-k)
 .debug_line    0x0000000000001df1      0x302 build/cooja/mtype788.a(coap-observe.o)
 .debug_line    0x00000000000020f3      0x379 build/cooja/mtype788.a(coap-uip.o)
 .debug_line    0x000000000000246c      0x109 build/cooja/mtype788.a(coap-timer.o)
 .debug_line    0x0000000000002575      0x1d8 build/cooja/mtype788.a(coap-transactio)
 .debug_line    0x000000000000274d      0x55a build/cooja/mtype788.a(coap.o)
 .debug_line    0x0000000000002ca7      0x3a5 build/cooja/mtype788.a(contiki-main.o)
 .debug_line    0x000000000000304c       0x9a build/cooja/mtype788.a(autostart.o)
 .debug_line    0x00000000000030e6      0x178 build/cooja/mtype788.a(ctimer.o)
 .debug_line    0x000000000000325e      0x161 build/cooja/mtype788.a(log.o)
 .debug_line    0x00000000000033bf       0x6a build/cooja/mtype788.a(energest.o)
 .debug_line    0x0000000000003429      0x19e build/cooja/mtype788.a(etimer.o)
 .debug_line    0x00000000000035c7       0x84 build/cooja/mtype788.a(node-id.o)
 .debug_line    0x000000000000364b       0x8c build/cooja/mtype788.a(rtimer.o)
 .debug_line    0x00000000000036d7      0x184 build/cooja/mtype788.a(process.o)
 .debug_line    0x000000000000385b       0xa1 build/cooja/mtype788.a(timer.o)
 .debug_line    0x00000000000038fc      0x116 build/cooja/mtype788.a(list.o)
 .debug_line    0x0000000000003a12       0xbf build/cooja/mtype788.a(memb.o)
 .debug_line    0x0000000000003ad1      0x20e build/cooja/mtype788.a(button-hal.o)
 .debug_line    0x0000000000003cdf      0x127 build/cooja/mtype788.a(serial-line.o)
 .debug_line    0x0000000000003e06       0xbe build/cooja/mtype788.a(gpio-hal.o)
 .debug_line    0x0000000000003ec4       0xf4 build/cooja/mtype788.a(queuebuf.o)
 .debug_line    0x0000000000003fb8      0x10f build/cooja/mtype788.a(packetbuf.o)
 .debug_line    0x00000000000040c7      0x129 build/cooja/mtype788.a(netstack.o)
 .debug_line    0x00000000000041f0       0x7a build/cooja/mtype788.a(linkaddr.o)
 .debug_line    0x000000000000426a      0x19c build/cooja/mtype788.a(csma.o)
 .debug_line    0x0000000000004406      0x371 build/cooja/mtype788.a(csma-output.o)
 .debug_line    0x0000000000004777      0x351 build/cooja/mtype788.a(uip-ds6.o)
 .debug_line    0x0000000000004ac8       0xd8 build/cooja/mtype788.a(uip-udp-packet.)
 .debug_line    0x0000000000004ba0      0x348 build/cooja/mtype788.a(uip-ds6-route.o)
 .debug_line    0x0000000000004ee8      0x334 build/cooja/mtype788.a(tcpip.o)
 .debug_line    0x000000000000521c      0x586 build/cooja/mtype788.a(uip6.o)
 .debug_line    0x00000000000057a2      0x290 build/cooja/mtype788.a(uip-ds6-nbr.o)
 .debug_line    0x0000000000005a32      0x2bb build/cooja/mtype788.a(uip-nd6.o)
 .debug_line    0x0000000000005ced      0x9dc build/cooja/mtype788.a(sicslowpan.o)
 .debug_line    0x00000000000066c9      0x1ce build/cooja/mtype788.a(uiplib.o)
 .debug_line    0x0000000000006897      0x300 build/cooja/mtype788.a(rpl.o)
 .debug_line    0x0000000000006b97      0x419 build/cooja/mtype788.a(rpl-icmp6.o)
 .debug_line    0x0000000000006fb0      0x1e0 build/cooja/mtype788.a(rpl-dag-root.o)
 .debug_line    0x0000000000007190       0x9b build/cooja/mtype788.a(watchdog.o)
 .debug_line    0x000000000000722b       0xa1 build/cooja/mtype788.a(int-master.o)
 .debug_line    0x00000000000072cc      0x15c build/cooja/mtype788.a(coap-timer-defa)
 .debug_line    0x0000000000007428       0x77 build/cooja/mtype788.a(stimer.o)
 .debug_line    0x000000000000749f       0x9a build/cooja/mtype788.a(ringbuf.o)
 .debug_line    0x0000000000007539       0x4b build/cooja/mtype788.a(assert.o)
 .debug_line    0x0000000000007584      0x249 build/cooja/mtype788.a(nbr-table.o)
 .debug_line    0x00000000000077cd      0x20c build/cooja/mtype788.a(link-stats.o)
 .debug_line    0x00000000000079d9      0x117 build/cooja/mtype788.a(mac-sequence.o)
 .debug_line    0x0000000000007af0       0x56 build/cooja/mtype788.a(mac.o)
 .debug_line    0x0000000000007b46      0x183 build/cooja/mtype788.a(framer-802154.o)
 .debug_line    0x0000000000007cc9      0x2c1 build/cooja/mtype788.a(frame802154.o)
 .debug_line    0x0000000000007f8a       0xb8 build/cooja/mtype788.a(csma-security.o)
 .debug_line    0x0000000000008042      0x14c build/cooja/mtype788.a(uipbuf.o)
 .debug_line    0x000000000000818e      0x2e9 build/cooja/mtype788.a(uip-icmp6.o)
 .debug_line    0x0000000000008477      0x2f7 build/cooja/mtype788.a(uip-sr.o)
 .debug_line    0x000000000000876e      0x16a build/cooja/mtype788.a(uip-packetqueue)
 .debug_line    0x00000000000088d8      0x1e7 build/cooja/mtype788.a(rpl-nbr-policy.)
 .debug_line    0x0000000000008abf      0x37f build/cooja/mtype788.a(rpl-neighbor.o)
 .debug_line    0x0000000000008e3e      0x419 build/cooja/mtype788.a(rpl-dag.o)
 .debug_line    0x0000000000009257      0x2ff build/cooja/mtype788.a(rpl-timers.o)
 .debug_line    0x0000000000009556      0x483 build/cooja/mtype788.a(rpl-ext-header.)
 .debug_line    0x00000000000099d9      0x268 build/cooja/mtype788.a(rpl-mrhof.o)

.debug_frame
 *(.debug_frame)

.debug_str      0x0000000000000000     0x9993
 *(.debug_str)
 .debug_str     0x0000000000000000      0x6c7 coap-actuator-energy.o
                                        0x87f (size before relaxing)
 .debug_str     0x00000000000006c7     0x1775 build/cooja/mtype788.o
                                       0x1960 (size before relaxing)
 .debug_str     0x0000000000001e3c       0x30 build/cooja/mtype788.a(simEnvChange.o)
                                        0x1fd (size before relaxing)
 .debug_str     0x0000000000001e6c       0x58 build/cooja/mtype788.a(cooja_mt.o)
                                        0x1fe (size before relaxing)
 .debug_str     0x0000000000001ec4       0x97 build/cooja/mtype788.a(cooja_mtarch.o)
                                        0x203 (size before relaxing)
 .debug_str     0x0000000000001f5b      0x10f build/cooja/mtype788.a(rtimer-arch.o)
                                        0x250 (size before relaxing)
 .debug_str     0x000000000000206a       0xc6 build/cooja/mtype788.a(beep.o)
                                        0x247 (size before relaxing)
 .debug_str     0x0000000000002130       0x9e build/cooja/mtype788.a(leds-arch.o)
                                        0x254 (size before relaxing)
 .debug_str     0x00000000000021ce       0x49 build/cooja/mtype788.a(moteid.o)
                                        0x1fd (size before relaxing)
 .debug_str     0x0000000000002217       0x57 build/cooja/mtype788.a(pir-sensor.o)
                                        0x234 (size before relaxing)
 .debug_str     0x000000000000226e       0xc3 build/cooja/mtype788.a(rs232.o)
                                        0x288 (size before relaxing)
 .debug_str     0x0000000000002331       0x57 build/cooja/mtype788.a(vib-sensor.o)
                                        0x234 (size before relaxing)
 .debug_str     0x0000000000002388       0x73 build/cooja/mtype788.a(clock.o)
                                        0x229 (size before relaxing)
 .debug_str     0x00000000000023fb       0xd9 build/cooja/mtype788.a(cooja-log.o)
                                        0x2b4 (size before relaxing)
 .debug_str     0x00000000000024d4      0x10e build/cooja/mtype788.a(cfs-cooja.o)
                                        0x2ca (size before relaxing)
 .debug_str     0x00000000000025e2      0x77a build/cooja/mtype788.a(cooja-radio.o)
                                        0xa6e (size before relaxing)
 .debug_str     0x0000000000002d5c       0x9b build/cooja/mtype788.a(eeprom.o)
                                        0x24a (size before relaxing)
 .debug_str     0x0000000000002df7       0x36 build/cooja/mtype788.a(random.o)
                                        0x162 (size before relaxing)
 .debug_str     0x0000000000002e2d       0x9c build/cooja/mtype788.a(sensors.o)
                                        0x292 (size before relaxing)
 .debug_str     0x0000000000002ec9       0x8d build/cooja/mtype788.a(leds.o)
                                        0x21d (size before relaxing)
 .debug_str     0x0000000000002f56      0x2a8 build/cooja/mtype788.a(gpio-hal-arch.o)
                                        0x40f (size before relaxing)
 .debug_str     0x00000000000031fe      0x10f build/cooja/mtype788.a(buttons.o)
                                        0x3cb (size before relaxing)
 .debug_str     0x000000000000330d      0x608 build/cooja/mtype788.a(coap-engine.o)
                                        0xe0c (size before relaxing)
 .debug_str     0x0000000000003915      0x1f4 build/cooja/mtype788.a(coap-res-well-k)
                                        0xbe9 (size before relaxing)
 .debug_str     0x0000000000003b09      0x1f6 build/cooja/mtype788.a(coap-observe.o)
                                        0xcfa (size before relaxing)
 .debug_str     0x0000000000003cff      0x457 build/cooja/mtype788.a(coap-uip.o)
                                        0x9fd (size before relaxing)
 .debug_str     0x0000000000004156       0xba build/cooja/mtype788.a(coap-timer.o)
                                        0x2b4 (size before relaxing)
 .debug_str     0x0000000000004210      0x11f build/cooja/mtype788.a(coap-transactio)
                                        0x837 (size before relaxing)
 .debug_str     0x000000000000432f      0x5e7 build/cooja/mtype788.a(coap.o)
                                        0xe66 (size before relaxing)
 .debug_str     0x0000000000004916      0x4cd build/cooja/mtype788.a(contiki-main.o)
                                        0xd3b (size before relaxing)
 .debug_str     0x0000000000004de3       0x3b build/cooja/mtype788.a(autostart.o)
                                        0x1be (size before relaxing)
 .debug_str     0x0000000000004e1e       0xd6 build/cooja/mtype788.a(ctimer.o)
                                        0x2bf (size before relaxing)
 .debug_str     0x0000000000004ef4      0x1b4 build/cooja/mtype788.a(log.o)
                                        0x372 (size before relaxing)
 .debug_str     0x00000000000050a8       0x50 build/cooja/mtype788.a(energest.o)
                                        0x185 (size before relaxing)
 .debug_str     0x00000000000050f8      0x139 build/cooja/mtype788.a(etimer.o)
                                        0x332 (size before relaxing)
 .debug_str     0x0000000000005231       0x27 build/cooja/mtype788.a(node-id.o)
                                        0x182 (size before relaxing)
 .debug_str     0x0000000000005258       0xb3 build/cooja/mtype788.a(rtimer.o)
                                        0x209 (size before relaxing)
 .debug_str     0x000000000000530b      0x157 build/cooja/mtype788.a(process.o)
                                        0x2f4 (size before relaxing)
 .debug_str     0x0000000000005462       0x18 build/cooja/mtype788.a(timer.o)
                                        0x1ad (size before relaxing)
 .debug_str     0x000000000000547a       0xb7 build/cooja/mtype788.a(list.o)
                                        0x204 (size before relaxing)
 .debug_str     0x0000000000005531       0x5d build/cooja/mtype788.a(memb.o)
                                        0x19e (size before relaxing)
 .debug_str     0x000000000000558e      0x1cc build/cooja/mtype788.a(button-hal.o)
                                        0x4d3 (size before relaxing)
 .debug_str     0x000000000000575a       0x9d build/cooja/mtype788.a(serial-line.o)
                                        0x27d (size before relaxing)
 .debug_str     0x00000000000057f7       0xef build/cooja/mtype788.a(gpio-hal.o)
                                        0x2d3 (size before relaxing)
 .debug_str     0x00000000000058e6      0x1cd build/cooja/mtype788.a(queuebuf.o)
                                        0x4f3 (size before relaxing)
 .debug_str     0x0000000000005ab3      0x1b7 build/cooja/mtype788.a(packetbuf.o)
                                        0x530 (size before relaxing)
 .debug_str     0x0000000000005c6a      0x16a build/cooja/mtype788.a(netstack.o)
                                        0x45e (size before relaxing)
 .debug_str     0x0000000000005dd4       0x53 build/cooja/mtype788.a(linkaddr.o)
                                        0x1bf (size before relaxing)
 .debug_str     0x0000000000005e27       0x92 build/cooja/mtype788.a(csma.o)
                                        0x7b6 (size before relaxing)
 .debug_str     0x0000000000005eb9      0x285 build/cooja/mtype788.a(csma-output.o)
                                        0x856 (size before relaxing)
 .debug_str     0x000000000000613e      0x3f2 build/cooja/mtype788.a(uip-ds6.o)
                                        0x6f0 (size before relaxing)
 .debug_str     0x0000000000006530       0x77 build/cooja/mtype788.a(uip-udp-packet.)
                                        0x290 (size before relaxing)
 .debug_str     0x00000000000065a7      0x52d build/cooja/mtype788.a(uip-ds6-route.o)
                                        0x9ad (size before relaxing)
 .debug_str     0x0000000000006ad4      0x19a build/cooja/mtype788.a(tcpip.o)
                                        0x9f2 (size before relaxing)
 .debug_str     0x0000000000006c6e      0x1fa build/cooja/mtype788.a(uip6.o)
                                        0xa30 (size before relaxing)
 .debug_str     0x0000000000006e68      0x1c5 build/cooja/mtype788.a(uip-ds6-nbr.o)
                                        0x88f (size before relaxing)
 .debug_str     0x000000000000702d      0x120 build/cooja/mtype788.a(uip-nd6.o)
                                        0x5fc (size before relaxing)
 .debug_str     0x000000000000714d      0x58c build/cooja/mtype788.a(sicslowpan.o)
                                        0xf2d (size before relaxing)
 .debug_str     0x00000000000076d9       0x93 build/cooja/mtype788.a(uiplib.o)
                                        0x209 (size before relaxing)
 .debug_str     0x000000000000776c      0x2b5 build/cooja/mtype788.a(rpl.o)
                                        0xba4 (size before relaxing)
 .debug_str     0x0000000000007a21      0x1e0 build/cooja/mtype788.a(rpl-icmp6.o)
                                        0xc64 (size before relaxing)
 .debug_str     0x0000000000007c01       0xa4 build/cooja/mtype788.a(rpl-dag-root.o)
                                        0x855 (size before relaxing)
 .debug_str     0x0000000000007ca5       0x79 build/cooja/mtype788.a(watchdog.o)
                                        0x1b8 (size before relaxing)
 .debug_str     0x0000000000007d1e       0x8b build/cooja/mtype788.a(int-master.o)
                                        0x1e1 (size before relaxing)
 .debug_str     0x0000000000007da9       0x70 build/cooja/mtype788.a(coap-timer-defa)
                                        0x2a1 (size before relaxing)
 .debug_str     0x0000000000007e19       0x6f build/cooja/mtype788.a(stimer.o)
                                        0x1b1 (size before relaxing)
 .debug_str     0x0000000000007e88       0x5d build/cooja/mtype788.a(ringbuf.o)
                                        0x1c0 (size before relaxing)
 .debug_str     0x0000000000007ee5       0x29 build/cooja/mtype788.a(assert.o)
                                        0x15a (size before relaxing)
 .debug_str     0x0000000000007f0e      0x26f build/cooja/mtype788.a(nbr-table.o)
                                        0x5a6 (size before relaxing)
 .debug_str     0x000000000000817d      0x12c build/cooja/mtype788.a(link-stats.o)
                                        0x6ba (size before relaxing)
 .debug_str     0x00000000000082a9       0x73 build/cooja/mtype788.a(mac-sequence.o)
                                        0x380 (size before relaxing)
 .debug_str     0x000000000000831c       0x38 build/cooja/mtype788.a(mac.o)
                                        0x18b (size before relaxing)
 .debug_str     0x0000000000008354      0x230 build/cooja/mtype788.a(framer-802154.o)
                                        0x5c8 (size before relaxing)
 .debug_str     0x0000000000008584      0x1f5 build/cooja/mtype788.a(frame802154.o)
                                        0x577 (size before relaxing)
 .debug_str     0x0000000000008779       0x5e build/cooja/mtype788.a(csma-security.o)
                                        0x358 (size before relaxing)
 .debug_str     0x00000000000087d7      0x1ad build/cooja/mtype788.a(uipbuf.o)
                                        0x456 (size before relaxing)
 .debug_str     0x0000000000008984      0x1f0 build/cooja/mtype788.a(uip-icmp6.o)
                                        0x923 (size before relaxing)
 .debug_str     0x0000000000008b74      0x17e build/cooja/mtype788.a(uip-sr.o)
                                        0x718 (size before relaxing)
 .debug_str     0x0000000000008cf2       0xf6 build/cooja/mtype788.a(uip-packetqueue)
                                        0x342 (size before relaxing)
 .debug_str     0x0000000000008de8       0xa7 build/cooja/mtype788.a(rpl-nbr-policy.)
                                        0x9b6 (size before relaxing)
 .debug_str     0x0000000000008e8f      0x291 build/cooja/mtype788.a(rpl-neighbor.o)
                                        0xa2c (size before relaxing)
 .debug_str     0x0000000000009120      0x2d3 build/cooja/mtype788.a(rpl-dag.o)
                                        0xb54 (size before relaxing)
 .debug_str     0x00000000000093f3      0x324 build/cooja/mtype788.a(rpl-timers.o)
                                        0xa20 (size before relaxing)
 .debug_str     0x0000000000009717      0x1b5 build/cooja/mtype788.a(rpl-ext-header.)
                                        0xf65 (size before relaxing)
 .debug_str     0x00000000000098cc       0xc7 build/cooja/mtype788.a(rpl-mrhof.o)
                                        0x71d (size before relaxing)

.debug_loc
 *(.debug_loc)

.debug_macinfo
 *(.debug_macinfo)

.debug_weaknames
 *(.debug_weaknames)

.debug_funcnames
 *(.debug_funcnames)

.debug_typenames
 *(.debug_typenames)

.debug_varnames
 *(.debug_varnames)

.debug_pubtypes
 *(.debug_pubtypes)

.debug_ranges   0x0000000000000000      0x100
 *(.debug_ranges)
 .debug_ranges  0x0000000000000000       0x18 build/cooja/mtype788.a(etimer.o)
 .debug_ranges  0x0000000000000018       0x30 build/cooja/mtype788.a(csma-output.o)
 .debug_ranges  0x0000000000000048       0x18 build/cooja/mtype788.a(tcpip.o)
 .debug_ranges  0x0000000000000060       0x28 build/cooja/mtype788.a(uip-nd6.o)
 .debug_ranges  0x0000000000000088       0x48 build/cooja/mtype788.a(sicslowpan.o)
 .debug_ranges  0x00000000000000d0       0x30 build/cooja/mtype788.a(nbr-table.o)

.debug_macro
 *(.debug_macro)

.gnu.attributes
 *(.gnu.attributes)

/DISCARD/
 *(.note.GNU-stack)
 *(.gnu_debuglink)
 *(.gnu.lto_*)
OUTPUT(build/cooja/mtype788.cooja elf32-i386)
